In archive libArduinoCore.a:

HardwareSerial.o:     file format elf32-avr

Sections:
Idx Name          Size      VMA       LMA       File off  Algn
  0 .text         000004ce  00000000  00000000  00000034  2**0
                  CONTENTS, ALLOC, LOAD, RELOC, READONLY, CODE
  1 .data         00000022  00000000  00000000  00000502  2**0
                  CONTENTS, ALLOC, LOAD, RELOC, DATA
  2 .bss          00000097  00000000  00000000  00000524  2**0
                  ALLOC
  3 .ctors        00000002  00000000  00000000  00000524  2**0
                  CONTENTS, ALLOC, LOAD, RELOC, READONLY, DATA

Disassembly of section .text:

00000000 <__vector_18>:
   0:	1f 92       	push	r1
   2:	0f 92       	push	r0
   4:	0f b6       	in	r0, 0x3f	; 63
   6:	0f 92       	push	r0
   8:	11 24       	eor	r1, r1
   a:	2f 93       	push	r18
   c:	3f 93       	push	r19
   e:	4f 93       	push	r20
  10:	5f 93       	push	r21
  12:	6f 93       	push	r22
  14:	7f 93       	push	r23
  16:	8f 93       	push	r24
  18:	9f 93       	push	r25
  1a:	af 93       	push	r26
  1c:	bf 93       	push	r27
  1e:	ef 93       	push	r30
  20:	ff 93       	push	r31
  22:	40 91 c6 00 	lds	r20, 0x00C6
  26:	e0 91 00 00 	lds	r30, 0x0000
  2a:	f0 91 00 00 	lds	r31, 0x0000
  2e:	cf 01       	movw	r24, r30
  30:	01 96       	adiw	r24, 0x01	; 1
  32:	60 e8       	ldi	r22, 0x80	; 128
  34:	70 e0       	ldi	r23, 0x00	; 0
  36:	0e 94 00 00 	call	0	; 0x0 <__vector_18>
  3a:	9c 01       	movw	r18, r24
  3c:	80 91 00 00 	lds	r24, 0x0000
  40:	90 91 00 00 	lds	r25, 0x0000
  44:	28 17       	cp	r18, r24
  46:	39 07       	cpc	r19, r25
  48:	01 f0       	breq	.+0      	; 0x4a <__vector_18+0x4a>
  4a:	e0 50       	subi	r30, 0x00	; 0
  4c:	f0 40       	sbci	r31, 0x00	; 0
  4e:	40 83       	st	Z, r20
  50:	30 93 00 00 	sts	0x0000, r19
  54:	20 93 00 00 	sts	0x0000, r18
  58:	ff 91       	pop	r31
  5a:	ef 91       	pop	r30
  5c:	bf 91       	pop	r27
  5e:	af 91       	pop	r26
  60:	9f 91       	pop	r25
  62:	8f 91       	pop	r24
  64:	7f 91       	pop	r23
  66:	6f 91       	pop	r22
  68:	5f 91       	pop	r21
  6a:	4f 91       	pop	r20
  6c:	3f 91       	pop	r19
  6e:	2f 91       	pop	r18
  70:	0f 90       	pop	r0
  72:	0f be       	out	0x3f, r0	; 63
  74:	0f 90       	pop	r0
  76:	1f 90       	pop	r1
  78:	18 95       	reti

0000007a <_ZN14HardwareSerialC2EP11ring_bufferPVhS3_S3_S3_S3_hhhhh>:
  7a:	8f 92       	push	r8
  7c:	af 92       	push	r10
  7e:	cf 92       	push	r12
  80:	df 92       	push	r13
  82:	ef 92       	push	r14
  84:	ff 92       	push	r15
  86:	0f 93       	push	r16
  88:	1f 93       	push	r17
  8a:	df 93       	push	r29
  8c:	cf 93       	push	r28
  8e:	cd b7       	in	r28, 0x3d	; 61
  90:	de b7       	in	r29, 0x3e	; 62
  92:	fc 01       	movw	r30, r24
  94:	80 e0       	ldi	r24, 0x00	; 0
  96:	90 e0       	ldi	r25, 0x00	; 0
  98:	91 83       	std	Z+1, r25	; 0x01
  9a:	80 83       	st	Z, r24
  9c:	73 83       	std	Z+3, r23	; 0x03
  9e:	62 83       	std	Z+2, r22	; 0x02
  a0:	55 83       	std	Z+5, r21	; 0x05
  a2:	44 83       	std	Z+4, r20	; 0x04
  a4:	37 83       	std	Z+7, r19	; 0x07
  a6:	26 83       	std	Z+6, r18	; 0x06
  a8:	11 87       	std	Z+9, r17	; 0x09
  aa:	00 87       	std	Z+8, r16	; 0x08
  ac:	f3 86       	std	Z+11, r15	; 0x0b
  ae:	e2 86       	std	Z+10, r14	; 0x0a
  b0:	d5 86       	std	Z+13, r13	; 0x0d
  b2:	c4 86       	std	Z+12, r12	; 0x0c
  b4:	a6 86       	std	Z+14, r10	; 0x0e
  b6:	87 86       	std	Z+15, r8	; 0x0f
  b8:	8d 85       	ldd	r24, Y+13	; 0x0d
  ba:	80 8b       	std	Z+16, r24	; 0x10
  bc:	8e 85       	ldd	r24, Y+14	; 0x0e
  be:	81 8b       	std	Z+17, r24	; 0x11
  c0:	8f 85       	ldd	r24, Y+15	; 0x0f
  c2:	82 8b       	std	Z+18, r24	; 0x12
  c4:	cf 91       	pop	r28
  c6:	df 91       	pop	r29
  c8:	1f 91       	pop	r17
  ca:	0f 91       	pop	r16
  cc:	ff 90       	pop	r15
  ce:	ef 90       	pop	r14
  d0:	df 90       	pop	r13
  d2:	cf 90       	pop	r12
  d4:	af 90       	pop	r10
  d6:	8f 90       	pop	r8
  d8:	08 95       	ret

000000da <_ZN14HardwareSerialC1EP11ring_bufferPVhS3_S3_S3_S3_hhhhh>:
  da:	8f 92       	push	r8
  dc:	af 92       	push	r10
  de:	cf 92       	push	r12
  e0:	df 92       	push	r13
  e2:	ef 92       	push	r14
  e4:	ff 92       	push	r15
  e6:	0f 93       	push	r16
  e8:	1f 93       	push	r17
  ea:	df 93       	push	r29
  ec:	cf 93       	push	r28
  ee:	cd b7       	in	r28, 0x3d	; 61
  f0:	de b7       	in	r29, 0x3e	; 62
  f2:	fc 01       	movw	r30, r24
  f4:	80 e0       	ldi	r24, 0x00	; 0
  f6:	90 e0       	ldi	r25, 0x00	; 0
  f8:	91 83       	std	Z+1, r25	; 0x01
  fa:	80 83       	st	Z, r24
  fc:	73 83       	std	Z+3, r23	; 0x03
  fe:	62 83       	std	Z+2, r22	; 0x02
 100:	55 83       	std	Z+5, r21	; 0x05
 102:	44 83       	std	Z+4, r20	; 0x04
 104:	37 83       	std	Z+7, r19	; 0x07
 106:	26 83       	std	Z+6, r18	; 0x06
 108:	11 87       	std	Z+9, r17	; 0x09
 10a:	00 87       	std	Z+8, r16	; 0x08
 10c:	f3 86       	std	Z+11, r15	; 0x0b
 10e:	e2 86       	std	Z+10, r14	; 0x0a
 110:	d5 86       	std	Z+13, r13	; 0x0d
 112:	c4 86       	std	Z+12, r12	; 0x0c
 114:	a6 86       	std	Z+14, r10	; 0x0e
 116:	87 86       	std	Z+15, r8	; 0x0f
 118:	8d 85       	ldd	r24, Y+13	; 0x0d
 11a:	80 8b       	std	Z+16, r24	; 0x10
 11c:	8e 85       	ldd	r24, Y+14	; 0x0e
 11e:	81 8b       	std	Z+17, r24	; 0x11
 120:	8f 85       	ldd	r24, Y+15	; 0x0f
 122:	82 8b       	std	Z+18, r24	; 0x12
 124:	cf 91       	pop	r28
 126:	df 91       	pop	r29
 128:	1f 91       	pop	r17
 12a:	0f 91       	pop	r16
 12c:	ff 90       	pop	r15
 12e:	ef 90       	pop	r14
 130:	df 90       	pop	r13
 132:	cf 90       	pop	r12
 134:	af 90       	pop	r10
 136:	8f 90       	pop	r8
 138:	08 95       	ret

0000013a <_ZN14HardwareSerial5beginEl>:
 13a:	5f 92       	push	r5
 13c:	6f 92       	push	r6
 13e:	7f 92       	push	r7
 140:	8f 92       	push	r8
 142:	9f 92       	push	r9
 144:	af 92       	push	r10
 146:	bf 92       	push	r11
 148:	cf 92       	push	r12
 14a:	df 92       	push	r13
 14c:	ef 92       	push	r14
 14e:	ff 92       	push	r15
 150:	0f 93       	push	r16
 152:	1f 93       	push	r17
 154:	cf 93       	push	r28
 156:	df 93       	push	r29
 158:	ec 01       	movw	r28, r24
 15a:	5a 01       	movw	r10, r20
 15c:	6b 01       	movw	r12, r22
 15e:	81 e4       	ldi	r24, 0x41	; 65
 160:	a8 16       	cp	r10, r24
 162:	82 e4       	ldi	r24, 0x42	; 66
 164:	b8 06       	cpc	r11, r24
 166:	8f e0       	ldi	r24, 0x0F	; 15
 168:	c8 06       	cpc	r12, r24
 16a:	80 e0       	ldi	r24, 0x00	; 0
 16c:	d8 06       	cpc	r13, r24
 16e:	00 f0       	brcs	.+0      	; 0x170 <_ZN14HardwareSerial5beginEl+0x36>
 170:	00 c0       	rjmp	.+0      	; 0x172 <_ZN14HardwareSerial5beginEl+0x38>
 172:	60 e8       	ldi	r22, 0x80	; 128
 174:	74 e8       	ldi	r23, 0x84	; 132
 176:	8e e1       	ldi	r24, 0x1E	; 30
 178:	90 e0       	ldi	r25, 0x00	; 0
 17a:	a6 01       	movw	r20, r12
 17c:	95 01       	movw	r18, r10
 17e:	0e 94 00 00 	call	0	; 0x0 <__vector_18>
 182:	39 01       	movw	r6, r18
 184:	4a 01       	movw	r8, r20
 186:	08 94       	sec
 188:	61 08       	sbc	r6, r1
 18a:	71 08       	sbc	r7, r1
 18c:	81 08       	sbc	r8, r1
 18e:	91 08       	sbc	r9, r1
 190:	96 94       	lsr	r9
 192:	87 94       	ror	r8
 194:	77 94       	ror	r7
 196:	67 94       	ror	r6
 198:	a4 01       	movw	r20, r8
 19a:	93 01       	movw	r18, r6
 19c:	2f 5f       	subi	r18, 0xFF	; 255
 19e:	3f 4f       	sbci	r19, 0xFF	; 255
 1a0:	4f 4f       	sbci	r20, 0xFF	; 255
 1a2:	5f 4f       	sbci	r21, 0xFF	; 255
 1a4:	74 e0       	ldi	r23, 0x04	; 4
 1a6:	22 0f       	add	r18, r18
 1a8:	33 1f       	adc	r19, r19
 1aa:	44 1f       	adc	r20, r20
 1ac:	55 1f       	adc	r21, r21
 1ae:	7a 95       	dec	r23
 1b0:	01 f4       	brne	.+0      	; 0x1b2 <_ZN14HardwareSerial5beginEl+0x78>
 1b2:	60 e0       	ldi	r22, 0x00	; 0
 1b4:	74 e2       	ldi	r23, 0x24	; 36
 1b6:	84 ef       	ldi	r24, 0xF4	; 244
 1b8:	90 e0       	ldi	r25, 0x00	; 0
 1ba:	0e 94 00 00 	call	0	; 0x0 <__vector_18>
 1be:	ca 01       	movw	r24, r20
 1c0:	b9 01       	movw	r22, r18
 1c2:	2f ef       	ldi	r18, 0xFF	; 255
 1c4:	30 e0       	ldi	r19, 0x00	; 0
 1c6:	40 e0       	ldi	r20, 0x00	; 0
 1c8:	50 e0       	ldi	r21, 0x00	; 0
 1ca:	0e 94 00 00 	call	0	; 0x0 <__vector_18>
 1ce:	a6 01       	movw	r20, r12
 1d0:	95 01       	movw	r18, r10
 1d2:	0e 94 00 00 	call	0	; 0x0 <__vector_18>
 1d6:	8f ef       	ldi	r24, 0xFF	; 255
 1d8:	90 e0       	ldi	r25, 0x00	; 0
 1da:	82 1b       	sub	r24, r18
 1dc:	93 0b       	sbc	r25, r19
 1de:	18 16       	cp	r1, r24
 1e0:	19 06       	cpc	r1, r25
 1e2:	04 f4       	brge	.+0      	; 0x1e4 <_ZN14HardwareSerial5beginEl+0xaa>
 1e4:	52 2e       	mov	r5, r18
 1e6:	50 94       	com	r5
 1e8:	00 c0       	rjmp	.+0      	; 0x1ea <_ZN14HardwareSerial5beginEl+0xb0>
 1ea:	52 2e       	mov	r5, r18
 1ec:	53 94       	inc	r5
 1ee:	60 e0       	ldi	r22, 0x00	; 0
 1f0:	79 e0       	ldi	r23, 0x09	; 9
 1f2:	8d e3       	ldi	r24, 0x3D	; 61
 1f4:	90 e0       	ldi	r25, 0x00	; 0
 1f6:	a6 01       	movw	r20, r12
 1f8:	95 01       	movw	r18, r10
 1fa:	0e 94 00 00 	call	0	; 0x0 <__vector_18>
 1fe:	21 50       	subi	r18, 0x01	; 1
 200:	30 40       	sbci	r19, 0x00	; 0
 202:	40 40       	sbci	r20, 0x00	; 0
 204:	50 40       	sbci	r21, 0x00	; 0
 206:	56 95       	lsr	r21
 208:	47 95       	ror	r20
 20a:	37 95       	ror	r19
 20c:	27 95       	ror	r18
 20e:	2f 5f       	subi	r18, 0xFF	; 255
 210:	3f 4f       	sbci	r19, 0xFF	; 255
 212:	4f 4f       	sbci	r20, 0xFF	; 255
 214:	5f 4f       	sbci	r21, 0xFF	; 255
 216:	93 e0       	ldi	r25, 0x03	; 3
 218:	22 0f       	add	r18, r18
 21a:	33 1f       	adc	r19, r19
 21c:	44 1f       	adc	r20, r20
 21e:	55 1f       	adc	r21, r21
 220:	9a 95       	dec	r25
 222:	01 f4       	brne	.+0      	; 0x224 <_ZN14HardwareSerial5beginEl+0xea>
 224:	60 e0       	ldi	r22, 0x00	; 0
 226:	74 e2       	ldi	r23, 0x24	; 36
 228:	84 ef       	ldi	r24, 0xF4	; 244
 22a:	90 e0       	ldi	r25, 0x00	; 0
 22c:	0e 94 00 00 	call	0	; 0x0 <__vector_18>
 230:	ca 01       	movw	r24, r20
 232:	b9 01       	movw	r22, r18
 234:	2f ef       	ldi	r18, 0xFF	; 255
 236:	30 e0       	ldi	r19, 0x00	; 0
 238:	40 e0       	ldi	r20, 0x00	; 0
 23a:	50 e0       	ldi	r21, 0x00	; 0
 23c:	0e 94 00 00 	call	0	; 0x0 <__vector_18>
 240:	a6 01       	movw	r20, r12
 242:	95 01       	movw	r18, r10
 244:	0e 94 00 00 	call	0	; 0x0 <__vector_18>
 248:	8f ef       	ldi	r24, 0xFF	; 255
 24a:	90 e0       	ldi	r25, 0x00	; 0
 24c:	82 1b       	sub	r24, r18
 24e:	93 0b       	sbc	r25, r19
 250:	18 16       	cp	r1, r24
 252:	19 06       	cpc	r1, r25
 254:	04 f4       	brge	.+0      	; 0x256 <_ZN14HardwareSerial5beginEl+0x11c>
 256:	20 95       	com	r18
 258:	00 c0       	rjmp	.+0      	; 0x25a <_ZN14HardwareSerial5beginEl+0x120>
 25a:	2f 5f       	subi	r18, 0xFF	; 255
 25c:	25 15       	cp	r18, r5
 25e:	00 f4       	brcc	.+0      	; 0x260 <_ZN14HardwareSerial5beginEl+0x126>
 260:	e8 85       	ldd	r30, Y+8	; 0x08
 262:	f9 85       	ldd	r31, Y+9	; 0x09
 264:	81 e0       	ldi	r24, 0x01	; 1
 266:	90 e0       	ldi	r25, 0x00	; 0
 268:	0a 88       	ldd	r0, Y+18	; 0x12
 26a:	00 c0       	rjmp	.+0      	; 0x26c <_ZN14HardwareSerial5beginEl+0x132>
 26c:	88 0f       	add	r24, r24
 26e:	99 1f       	adc	r25, r25
 270:	0a 94       	dec	r0
 272:	02 f4       	brpl	.+0      	; 0x274 <_ZN14HardwareSerial5beginEl+0x13a>
 274:	80 83       	st	Z, r24
 276:	60 e0       	ldi	r22, 0x00	; 0
 278:	79 e0       	ldi	r23, 0x09	; 9
 27a:	8d e3       	ldi	r24, 0x3D	; 61
 27c:	90 e0       	ldi	r25, 0x00	; 0
 27e:	a6 01       	movw	r20, r12
 280:	95 01       	movw	r18, r10
 282:	0e 94 00 00 	call	0	; 0x0 <__vector_18>
 286:	21 50       	subi	r18, 0x01	; 1
 288:	30 40       	sbci	r19, 0x00	; 0
 28a:	40 40       	sbci	r20, 0x00	; 0
 28c:	50 40       	sbci	r21, 0x00	; 0
 28e:	56 95       	lsr	r21
 290:	47 95       	ror	r20
 292:	37 95       	ror	r19
 294:	27 95       	ror	r18
 296:	82 2f       	mov	r24, r18
 298:	23 2f       	mov	r18, r19
 29a:	00 c0       	rjmp	.+0      	; 0x29c <_ZN14HardwareSerial5beginEl+0x162>
 29c:	e8 85       	ldd	r30, Y+8	; 0x08
 29e:	f9 85       	ldd	r31, Y+9	; 0x09
 2a0:	10 82       	st	Z, r1
 2a2:	86 2d       	mov	r24, r6
 2a4:	27 2d       	mov	r18, r7
 2a6:	ec 81       	ldd	r30, Y+4	; 0x04
 2a8:	fd 81       	ldd	r31, Y+5	; 0x05
 2aa:	20 83       	st	Z, r18
 2ac:	ee 81       	ldd	r30, Y+6	; 0x06
 2ae:	ff 81       	ldd	r31, Y+7	; 0x07
 2b0:	80 83       	st	Z, r24
 2b2:	ea 85       	ldd	r30, Y+10	; 0x0a
 2b4:	fb 85       	ldd	r31, Y+11	; 0x0b
 2b6:	20 81       	ld	r18, Z
 2b8:	41 e0       	ldi	r20, 0x01	; 1
 2ba:	50 e0       	ldi	r21, 0x00	; 0
 2bc:	ca 01       	movw	r24, r20
 2be:	0e 84       	ldd	r0, Y+14	; 0x0e
 2c0:	00 c0       	rjmp	.+0      	; 0x2c2 <_ZN14HardwareSerial5beginEl+0x188>
 2c2:	88 0f       	add	r24, r24
 2c4:	99 1f       	adc	r25, r25
 2c6:	0a 94       	dec	r0
 2c8:	02 f4       	brpl	.+0      	; 0x2ca <_ZN14HardwareSerial5beginEl+0x190>
 2ca:	28 2b       	or	r18, r24
 2cc:	20 83       	st	Z, r18
 2ce:	ea 85       	ldd	r30, Y+10	; 0x0a
 2d0:	fb 85       	ldd	r31, Y+11	; 0x0b
 2d2:	20 81       	ld	r18, Z
 2d4:	ca 01       	movw	r24, r20
 2d6:	0f 84       	ldd	r0, Y+15	; 0x0f
 2d8:	00 c0       	rjmp	.+0      	; 0x2da <_ZN14HardwareSerial5beginEl+0x1a0>
 2da:	88 0f       	add	r24, r24
 2dc:	99 1f       	adc	r25, r25
 2de:	0a 94       	dec	r0
 2e0:	02 f4       	brpl	.+0      	; 0x2e2 <_ZN14HardwareSerial5beginEl+0x1a8>
 2e2:	28 2b       	or	r18, r24
 2e4:	20 83       	st	Z, r18
 2e6:	ea 85       	ldd	r30, Y+10	; 0x0a
 2e8:	fb 85       	ldd	r31, Y+11	; 0x0b
 2ea:	80 81       	ld	r24, Z
 2ec:	08 88       	ldd	r0, Y+16	; 0x10
 2ee:	00 c0       	rjmp	.+0      	; 0x2f0 <_ZN14HardwareSerial5beginEl+0x1b6>
 2f0:	44 0f       	add	r20, r20
 2f2:	55 1f       	adc	r21, r21
 2f4:	0a 94       	dec	r0
 2f6:	02 f4       	brpl	.+0      	; 0x2f8 <_ZN14HardwareSerial5beginEl+0x1be>
 2f8:	84 2b       	or	r24, r20
 2fa:	80 83       	st	Z, r24
 2fc:	df 91       	pop	r29
 2fe:	cf 91       	pop	r28
 300:	1f 91       	pop	r17
 302:	0f 91       	pop	r16
 304:	ff 90       	pop	r15
 306:	ef 90       	pop	r14
 308:	df 90       	pop	r13
 30a:	cf 90       	pop	r12
 30c:	bf 90       	pop	r11
 30e:	af 90       	pop	r10
 310:	9f 90       	pop	r9
 312:	8f 90       	pop	r8
 314:	7f 90       	pop	r7
 316:	6f 90       	pop	r6
 318:	5f 90       	pop	r5
 31a:	08 95       	ret

0000031c <_ZN14HardwareSerial3endEv>:
 31c:	fc 01       	movw	r30, r24
 31e:	a2 85       	ldd	r26, Z+10	; 0x0a
 320:	b3 85       	ldd	r27, Z+11	; 0x0b
 322:	4c 91       	ld	r20, X
 324:	21 e0       	ldi	r18, 0x01	; 1
 326:	30 e0       	ldi	r19, 0x00	; 0
 328:	c9 01       	movw	r24, r18
 32a:	06 84       	ldd	r0, Z+14	; 0x0e
 32c:	00 c0       	rjmp	.+0      	; 0x32e <_ZN14HardwareSerial3endEv+0x12>
 32e:	88 0f       	add	r24, r24
 330:	99 1f       	adc	r25, r25
 332:	0a 94       	dec	r0
 334:	02 f4       	brpl	.+0      	; 0x336 <_ZN14HardwareSerial3endEv+0x1a>
 336:	80 95       	com	r24
 338:	84 23       	and	r24, r20
 33a:	8c 93       	st	X, r24
 33c:	a2 85       	ldd	r26, Z+10	; 0x0a
 33e:	b3 85       	ldd	r27, Z+11	; 0x0b
 340:	4c 91       	ld	r20, X
 342:	c9 01       	movw	r24, r18
 344:	07 84       	ldd	r0, Z+15	; 0x0f
 346:	00 c0       	rjmp	.+0      	; 0x348 <_ZN14HardwareSerial3endEv+0x2c>
 348:	88 0f       	add	r24, r24
 34a:	99 1f       	adc	r25, r25
 34c:	0a 94       	dec	r0
 34e:	02 f4       	brpl	.+0      	; 0x350 <_ZN14HardwareSerial3endEv+0x34>
 350:	80 95       	com	r24
 352:	84 23       	and	r24, r20
 354:	8c 93       	st	X, r24
 356:	a2 85       	ldd	r26, Z+10	; 0x0a
 358:	b3 85       	ldd	r27, Z+11	; 0x0b
 35a:	8c 91       	ld	r24, X
 35c:	00 88       	ldd	r0, Z+16	; 0x10
 35e:	00 c0       	rjmp	.+0      	; 0x360 <_ZN14HardwareSerial3endEv+0x44>
 360:	22 0f       	add	r18, r18
 362:	33 1f       	adc	r19, r19
 364:	0a 94       	dec	r0
 366:	02 f4       	brpl	.+0      	; 0x368 <_ZN14HardwareSerial3endEv+0x4c>
 368:	20 95       	com	r18
 36a:	28 23       	and	r18, r24
 36c:	2c 93       	st	X, r18
 36e:	08 95       	ret

00000370 <_ZN14HardwareSerial9availableEv>:
 370:	dc 01       	movw	r26, r24
 372:	12 96       	adiw	r26, 0x02	; 2
 374:	ed 91       	ld	r30, X+
 376:	fc 91       	ld	r31, X
 378:	13 97       	sbiw	r26, 0x03	; 3
 37a:	e0 58       	subi	r30, 0x80	; 128
 37c:	ff 4f       	sbci	r31, 0xFF	; 255
 37e:	81 91       	ld	r24, Z+
 380:	91 91       	ld	r25, Z+
 382:	80 58       	subi	r24, 0x80	; 128
 384:	9f 4f       	sbci	r25, 0xFF	; 255
 386:	20 81       	ld	r18, Z
 388:	31 81       	ldd	r19, Z+1	; 0x01
 38a:	82 1b       	sub	r24, r18
 38c:	93 0b       	sbc	r25, r19
 38e:	60 e8       	ldi	r22, 0x80	; 128
 390:	70 e0       	ldi	r23, 0x00	; 0
 392:	0e 94 00 00 	call	0	; 0x0 <__vector_18>
 396:	08 95       	ret

00000398 <_ZN14HardwareSerial4peekEv>:
 398:	dc 01       	movw	r26, r24
 39a:	12 96       	adiw	r26, 0x02	; 2
 39c:	ed 91       	ld	r30, X+
 39e:	fc 91       	ld	r31, X
 3a0:	13 97       	sbiw	r26, 0x03	; 3
 3a2:	ee 57       	subi	r30, 0x7E	; 126
 3a4:	ff 4f       	sbci	r31, 0xFF	; 255
 3a6:	20 81       	ld	r18, Z
 3a8:	31 81       	ldd	r19, Z+1	; 0x01
 3aa:	92 91       	ld	r25, -Z
 3ac:	82 91       	ld	r24, -Z
 3ae:	e0 58       	subi	r30, 0x80	; 128
 3b0:	f0 40       	sbci	r31, 0x00	; 0
 3b2:	82 17       	cp	r24, r18
 3b4:	93 07       	cpc	r25, r19
 3b6:	01 f4       	brne	.+0      	; 0x3b8 <_ZN14HardwareSerial4peekEv+0x20>
 3b8:	2f ef       	ldi	r18, 0xFF	; 255
 3ba:	3f ef       	ldi	r19, 0xFF	; 255
 3bc:	00 c0       	rjmp	.+0      	; 0x3be <_ZN14HardwareSerial4peekEv+0x26>
 3be:	e2 0f       	add	r30, r18
 3c0:	f3 1f       	adc	r31, r19
 3c2:	80 81       	ld	r24, Z
 3c4:	28 2f       	mov	r18, r24
 3c6:	30 e0       	ldi	r19, 0x00	; 0
 3c8:	c9 01       	movw	r24, r18
 3ca:	08 95       	ret

000003cc <_ZN14HardwareSerial4readEv>:
 3cc:	cf 93       	push	r28
 3ce:	df 93       	push	r29
 3d0:	dc 01       	movw	r26, r24
 3d2:	12 96       	adiw	r26, 0x02	; 2
 3d4:	ed 91       	ld	r30, X+
 3d6:	fc 91       	ld	r31, X
 3d8:	13 97       	sbiw	r26, 0x03	; 3
 3da:	ef 01       	movw	r28, r30
 3dc:	ce 57       	subi	r28, 0x7E	; 126
 3de:	df 4f       	sbci	r29, 0xFF	; 255
 3e0:	48 81       	ld	r20, Y
 3e2:	59 81       	ldd	r21, Y+1	; 0x01
 3e4:	e0 58       	subi	r30, 0x80	; 128
 3e6:	ff 4f       	sbci	r31, 0xFF	; 255
 3e8:	80 81       	ld	r24, Z
 3ea:	91 81       	ldd	r25, Z+1	; 0x01
 3ec:	e0 58       	subi	r30, 0x80	; 128
 3ee:	f0 40       	sbci	r31, 0x00	; 0
 3f0:	84 17       	cp	r24, r20
 3f2:	95 07       	cpc	r25, r21
 3f4:	01 f4       	brne	.+0      	; 0x3f6 <_ZN14HardwareSerial4readEv+0x2a>
 3f6:	2f ef       	ldi	r18, 0xFF	; 255
 3f8:	3f ef       	ldi	r19, 0xFF	; 255
 3fa:	00 c0       	rjmp	.+0      	; 0x3fc <_ZN14HardwareSerial4readEv+0x30>
 3fc:	e4 0f       	add	r30, r20
 3fe:	f5 1f       	adc	r31, r21
 400:	20 81       	ld	r18, Z
 402:	ca 01       	movw	r24, r20
 404:	01 96       	adiw	r24, 0x01	; 1
 406:	60 e8       	ldi	r22, 0x80	; 128
 408:	70 e0       	ldi	r23, 0x00	; 0
 40a:	0e 94 00 00 	call	0	; 0x0 <__vector_18>
 40e:	99 83       	std	Y+1, r25	; 0x01
 410:	88 83       	st	Y, r24
 412:	30 e0       	ldi	r19, 0x00	; 0
 414:	c9 01       	movw	r24, r18
 416:	df 91       	pop	r29
 418:	cf 91       	pop	r28
 41a:	08 95       	ret

0000041c <_ZN14HardwareSerial5flushEv>:
 41c:	dc 01       	movw	r26, r24
 41e:	12 96       	adiw	r26, 0x02	; 2
 420:	ed 91       	ld	r30, X+
 422:	fc 91       	ld	r31, X
 424:	13 97       	sbiw	r26, 0x03	; 3
 426:	ee 57       	subi	r30, 0x7E	; 126
 428:	ff 4f       	sbci	r31, 0xFF	; 255
 42a:	80 81       	ld	r24, Z
 42c:	91 81       	ldd	r25, Z+1	; 0x01
 42e:	92 93       	st	-Z, r25
 430:	82 93       	st	-Z, r24
 432:	08 95       	ret

00000434 <_ZN14HardwareSerial5writeEh>:
 434:	fc 01       	movw	r30, r24
 436:	a0 85       	ldd	r26, Z+8	; 0x08
 438:	b1 85       	ldd	r27, Z+9	; 0x09
 43a:	21 89       	ldd	r18, Z+17	; 0x11
 43c:	8c 91       	ld	r24, X
 43e:	90 e0       	ldi	r25, 0x00	; 0
 440:	02 2e       	mov	r0, r18
 442:	00 c0       	rjmp	.+0      	; 0x444 <_ZN14HardwareSerial5writeEh+0x10>
 444:	95 95       	asr	r25
 446:	87 95       	ror	r24
 448:	0a 94       	dec	r0
 44a:	02 f4       	brpl	.+0      	; 0x44c <_ZN14HardwareSerial5writeEh+0x18>
 44c:	80 ff       	sbrs	r24, 0
 44e:	00 c0       	rjmp	.+0      	; 0x450 <_ZN14HardwareSerial5writeEh+0x1c>
 450:	04 84       	ldd	r0, Z+12	; 0x0c
 452:	f5 85       	ldd	r31, Z+13	; 0x0d
 454:	e0 2d       	mov	r30, r0
 456:	60 83       	st	Z, r22
 458:	08 95       	ret

0000045a <_GLOBAL__I_rx_buffer>:
 45a:	80 e0       	ldi	r24, 0x00	; 0
 45c:	90 e0       	ldi	r25, 0x00	; 0
 45e:	90 93 00 00 	sts	0x0000, r25
 462:	80 93 00 00 	sts	0x0000, r24
 466:	80 e0       	ldi	r24, 0x00	; 0
 468:	90 e0       	ldi	r25, 0x00	; 0
 46a:	90 93 00 00 	sts	0x0000, r25
 46e:	80 93 00 00 	sts	0x0000, r24
 472:	85 ec       	ldi	r24, 0xC5	; 197
 474:	90 e0       	ldi	r25, 0x00	; 0
 476:	90 93 00 00 	sts	0x0000, r25
 47a:	80 93 00 00 	sts	0x0000, r24
 47e:	84 ec       	ldi	r24, 0xC4	; 196
 480:	90 e0       	ldi	r25, 0x00	; 0
 482:	90 93 00 00 	sts	0x0000, r25
 486:	80 93 00 00 	sts	0x0000, r24
 48a:	80 ec       	ldi	r24, 0xC0	; 192
 48c:	90 e0       	ldi	r25, 0x00	; 0
 48e:	90 93 00 00 	sts	0x0000, r25
 492:	80 93 00 00 	sts	0x0000, r24
 496:	81 ec       	ldi	r24, 0xC1	; 193
 498:	90 e0       	ldi	r25, 0x00	; 0
 49a:	90 93 00 00 	sts	0x0000, r25
 49e:	80 93 00 00 	sts	0x0000, r24
 4a2:	86 ec       	ldi	r24, 0xC6	; 198
 4a4:	90 e0       	ldi	r25, 0x00	; 0
 4a6:	90 93 00 00 	sts	0x0000, r25
 4aa:	80 93 00 00 	sts	0x0000, r24
 4ae:	84 e0       	ldi	r24, 0x04	; 4
 4b0:	80 93 00 00 	sts	0x0000, r24
 4b4:	83 e0       	ldi	r24, 0x03	; 3
 4b6:	80 93 00 00 	sts	0x0000, r24
 4ba:	87 e0       	ldi	r24, 0x07	; 7
 4bc:	80 93 00 00 	sts	0x0000, r24
 4c0:	85 e0       	ldi	r24, 0x05	; 5
 4c2:	80 93 00 00 	sts	0x0000, r24
 4c6:	81 e0       	ldi	r24, 0x01	; 1
 4c8:	80 93 00 00 	sts	0x0000, r24
 4cc:	08 95       	ret

Print.o:     file format elf32-avr

Sections:
Idx Name          Size      VMA       LMA       File off  Algn
  0 .text         000005a6  00000000  00000000  00000034  2**0
                  CONTENTS, ALLOC, LOAD, RELOC, READONLY, CODE
  1 .data         0000000c  00000000  00000000  000005da  2**0
                  CONTENTS, ALLOC, LOAD, RELOC, DATA
  2 .bss          00000000  00000000  00000000  000005e6  2**0
                  ALLOC

Disassembly of section .text:

00000000 <_ZN5Print5writeEPKc>:
   0:	0f 93       	push	r16
   2:	1f 93       	push	r17
   4:	cf 93       	push	r28
   6:	df 93       	push	r29
   8:	8c 01       	movw	r16, r24
   a:	eb 01       	movw	r28, r22
   c:	00 c0       	rjmp	.+0      	; 0xe <_ZN5Print5writeEPKc+0xe>
   e:	21 96       	adiw	r28, 0x01	; 1
  10:	d8 01       	movw	r26, r16
  12:	ed 91       	ld	r30, X+
  14:	fc 91       	ld	r31, X
  16:	01 90       	ld	r0, Z+
  18:	f0 81       	ld	r31, Z
  1a:	e0 2d       	mov	r30, r0
  1c:	c8 01       	movw	r24, r16
  1e:	09 95       	icall
  20:	68 81       	ld	r22, Y
  22:	66 23       	and	r22, r22
  24:	01 f4       	brne	.+0      	; 0x26 <_ZN5Print5writeEPKc+0x26>
  26:	df 91       	pop	r29
  28:	cf 91       	pop	r28
  2a:	1f 91       	pop	r17
  2c:	0f 91       	pop	r16
  2e:	08 95       	ret

00000030 <_ZN5Print5writeEPKhj>:
  30:	ef 92       	push	r14
  32:	ff 92       	push	r15
  34:	0f 93       	push	r16
  36:	1f 93       	push	r17
  38:	cf 93       	push	r28
  3a:	df 93       	push	r29
  3c:	8c 01       	movw	r16, r24
  3e:	7b 01       	movw	r14, r22
  40:	ea 01       	movw	r28, r20
  42:	00 c0       	rjmp	.+0      	; 0x44 <_ZN5Print5writeEPKhj+0x14>
  44:	d7 01       	movw	r26, r14
  46:	6d 91       	ld	r22, X+
  48:	7d 01       	movw	r14, r26
  4a:	d8 01       	movw	r26, r16
  4c:	ed 91       	ld	r30, X+
  4e:	fc 91       	ld	r31, X
  50:	01 90       	ld	r0, Z+
  52:	f0 81       	ld	r31, Z
  54:	e0 2d       	mov	r30, r0
  56:	c8 01       	movw	r24, r16
  58:	09 95       	icall
  5a:	21 97       	sbiw	r28, 0x01	; 1
  5c:	20 97       	sbiw	r28, 0x00	; 0
  5e:	01 f4       	brne	.+0      	; 0x60 <_ZN5Print5writeEPKhj+0x30>
  60:	df 91       	pop	r29
  62:	cf 91       	pop	r28
  64:	1f 91       	pop	r17
  66:	0f 91       	pop	r16
  68:	ff 90       	pop	r15
  6a:	ef 90       	pop	r14
  6c:	08 95       	ret

0000006e <_ZN5Print5printEPKc>:
  6e:	dc 01       	movw	r26, r24
  70:	ed 91       	ld	r30, X+
  72:	fc 91       	ld	r31, X
  74:	02 80       	ldd	r0, Z+2	; 0x02
  76:	f3 81       	ldd	r31, Z+3	; 0x03
  78:	e0 2d       	mov	r30, r0
  7a:	09 95       	icall
  7c:	08 95       	ret

0000007e <_ZN5Print5printERK6String>:
  7e:	cf 92       	push	r12
  80:	df 92       	push	r13
  82:	ef 92       	push	r14
  84:	ff 92       	push	r15
  86:	0f 93       	push	r16
  88:	1f 93       	push	r17
  8a:	cf 93       	push	r28
  8c:	df 93       	push	r29
  8e:	6c 01       	movw	r12, r24
  90:	7b 01       	movw	r14, r22
  92:	c0 e0       	ldi	r28, 0x00	; 0
  94:	d0 e0       	ldi	r29, 0x00	; 0
  96:	00 c0       	rjmp	.+0      	; 0x98 <_ZN5Print5printERK6String+0x1a>
  98:	d6 01       	movw	r26, r12
  9a:	ed 91       	ld	r30, X+
  9c:	fc 91       	ld	r31, X
  9e:	00 81       	ld	r16, Z
  a0:	11 81       	ldd	r17, Z+1	; 0x01
  a2:	c7 01       	movw	r24, r14
  a4:	be 01       	movw	r22, r28
  a6:	0e 94 00 00 	call	0	; 0x0 <_ZN5Print5writeEPKc>
  aa:	68 2f       	mov	r22, r24
  ac:	c6 01       	movw	r24, r12
  ae:	f8 01       	movw	r30, r16
  b0:	09 95       	icall
  b2:	21 96       	adiw	r28, 0x01	; 1
  b4:	f7 01       	movw	r30, r14
  b6:	84 81       	ldd	r24, Z+4	; 0x04
  b8:	95 81       	ldd	r25, Z+5	; 0x05
  ba:	c8 17       	cp	r28, r24
  bc:	d9 07       	cpc	r29, r25
  be:	00 f0       	brcs	.+0      	; 0xc0 <_ZN5Print5printERK6String+0x42>
  c0:	df 91       	pop	r29
  c2:	cf 91       	pop	r28
  c4:	1f 91       	pop	r17
  c6:	0f 91       	pop	r16
  c8:	ff 90       	pop	r15
  ca:	ef 90       	pop	r14
  cc:	df 90       	pop	r13
  ce:	cf 90       	pop	r12
  d0:	08 95       	ret

000000d2 <_ZN5Print11printNumberEmh>:
  d2:	2f 92       	push	r2
  d4:	3f 92       	push	r3
  d6:	4f 92       	push	r4
  d8:	5f 92       	push	r5
  da:	6f 92       	push	r6
  dc:	7f 92       	push	r7
  de:	8f 92       	push	r8
  e0:	9f 92       	push	r9
  e2:	af 92       	push	r10
  e4:	bf 92       	push	r11
  e6:	cf 92       	push	r12
  e8:	df 92       	push	r13
  ea:	ef 92       	push	r14
  ec:	ff 92       	push	r15
  ee:	0f 93       	push	r16
  f0:	1f 93       	push	r17
  f2:	df 93       	push	r29
  f4:	cf 93       	push	r28
  f6:	cd b7       	in	r28, 0x3d	; 61
  f8:	de b7       	in	r29, 0x3e	; 62
  fa:	a0 97       	sbiw	r28, 0x20	; 32
  fc:	0f b6       	in	r0, 0x3f	; 63
  fe:	f8 94       	cli
 100:	de bf       	out	0x3e, r29	; 62
 102:	0f be       	out	0x3f, r0	; 63
 104:	cd bf       	out	0x3d, r28	; 61
 106:	1c 01       	movw	r2, r24
 108:	6a 01       	movw	r12, r20
 10a:	7b 01       	movw	r14, r22
 10c:	41 15       	cp	r20, r1
 10e:	51 05       	cpc	r21, r1
 110:	61 05       	cpc	r22, r1
 112:	71 05       	cpc	r23, r1
 114:	01 f4       	brne	.+0      	; 0x116 <_ZN5Print11printNumberEmh+0x44>
 116:	40 e3       	ldi	r20, 0x30	; 48
 118:	50 e0       	ldi	r21, 0x00	; 0
 11a:	60 e0       	ldi	r22, 0x00	; 0
 11c:	70 e0       	ldi	r23, 0x00	; 0
 11e:	20 e0       	ldi	r18, 0x00	; 0
 120:	30 e0       	ldi	r19, 0x00	; 0
 122:	0e 94 00 00 	call	0	; 0x0 <_ZN5Print5writeEPKc>
 126:	00 c0       	rjmp	.+0      	; 0x128 <_ZN5Print11printNumberEmh+0x56>
 128:	88 24       	eor	r8, r8
 12a:	99 24       	eor	r9, r9
 12c:	54 01       	movw	r10, r8
 12e:	42 2e       	mov	r4, r18
 130:	55 24       	eor	r5, r5
 132:	66 24       	eor	r6, r6
 134:	77 24       	eor	r7, r7
 136:	01 e0       	ldi	r16, 0x01	; 1
 138:	10 e0       	ldi	r17, 0x00	; 0
 13a:	0c 0f       	add	r16, r28
 13c:	1d 1f       	adc	r17, r29
 13e:	08 0d       	add	r16, r8
 140:	19 1d       	adc	r17, r9
 142:	c7 01       	movw	r24, r14
 144:	b6 01       	movw	r22, r12
 146:	a3 01       	movw	r20, r6
 148:	92 01       	movw	r18, r4
 14a:	0e 94 00 00 	call	0	; 0x0 <_ZN5Print5writeEPKc>
 14e:	f8 01       	movw	r30, r16
 150:	60 83       	st	Z, r22
 152:	08 94       	sec
 154:	81 1c       	adc	r8, r1
 156:	91 1c       	adc	r9, r1
 158:	a1 1c       	adc	r10, r1
 15a:	b1 1c       	adc	r11, r1
 15c:	c7 01       	movw	r24, r14
 15e:	b6 01       	movw	r22, r12
 160:	a3 01       	movw	r20, r6
 162:	92 01       	movw	r18, r4
 164:	0e 94 00 00 	call	0	; 0x0 <_ZN5Print5writeEPKc>
 168:	c9 01       	movw	r24, r18
 16a:	da 01       	movw	r26, r20
 16c:	6c 01       	movw	r12, r24
 16e:	7d 01       	movw	r14, r26
 170:	c1 14       	cp	r12, r1
 172:	d1 04       	cpc	r13, r1
 174:	e1 04       	cpc	r14, r1
 176:	f1 04       	cpc	r15, r1
 178:	01 f4       	brne	.+0      	; 0x17a <_ZN5Print11printNumberEmh+0xa8>
 17a:	81 e0       	ldi	r24, 0x01	; 1
 17c:	e8 2e       	mov	r14, r24
 17e:	f1 2c       	mov	r15, r1
 180:	ec 0e       	add	r14, r28
 182:	fd 1e       	adc	r15, r29
 184:	e8 0c       	add	r14, r8
 186:	f9 1c       	adc	r15, r9
 188:	3e 01       	movw	r6, r28
 18a:	08 94       	sec
 18c:	61 1c       	adc	r6, r1
 18e:	71 1c       	adc	r7, r1
 190:	d5 01       	movw	r26, r10
 192:	c4 01       	movw	r24, r8
 194:	01 97       	sbiw	r24, 0x01	; 1
 196:	a1 09       	sbc	r26, r1
 198:	b1 09       	sbc	r27, r1
 19a:	6c 01       	movw	r12, r24
 19c:	c8 18       	sub	r12, r8
 19e:	d9 08       	sbc	r13, r9
 1a0:	00 c0       	rjmp	.+0      	; 0x1a2 <_ZN5Print11printNumberEmh+0xd0>
 1a2:	f6 01       	movw	r30, r12
 1a4:	ee 0d       	add	r30, r14
 1a6:	ff 1d       	adc	r31, r15
 1a8:	40 81       	ld	r20, Z
 1aa:	4a 30       	cpi	r20, 0x0A	; 10
 1ac:	00 f4       	brcc	.+0      	; 0x1ae <_ZN5Print11printNumberEmh+0xdc>
 1ae:	40 5d       	subi	r20, 0xD0	; 208
 1b0:	00 c0       	rjmp	.+0      	; 0x1b2 <_ZN5Print11printNumberEmh+0xe0>
 1b2:	49 5c       	subi	r20, 0xC9	; 201
 1b4:	50 e0       	ldi	r21, 0x00	; 0
 1b6:	60 e0       	ldi	r22, 0x00	; 0
 1b8:	70 e0       	ldi	r23, 0x00	; 0
 1ba:	c1 01       	movw	r24, r2
 1bc:	20 e0       	ldi	r18, 0x00	; 0
 1be:	30 e0       	ldi	r19, 0x00	; 0
 1c0:	0e 94 00 00 	call	0	; 0x0 <_ZN5Print5writeEPKc>
 1c4:	08 94       	sec
 1c6:	e1 08       	sbc	r14, r1
 1c8:	f1 08       	sbc	r15, r1
 1ca:	6e 14       	cp	r6, r14
 1cc:	7f 04       	cpc	r7, r15
 1ce:	01 f4       	brne	.+0      	; 0x1d0 <_ZN5Print11printNumberEmh+0xfe>
 1d0:	a0 96       	adiw	r28, 0x20	; 32
 1d2:	0f b6       	in	r0, 0x3f	; 63
 1d4:	f8 94       	cli
 1d6:	de bf       	out	0x3e, r29	; 62
 1d8:	0f be       	out	0x3f, r0	; 63
 1da:	cd bf       	out	0x3d, r28	; 61
 1dc:	cf 91       	pop	r28
 1de:	df 91       	pop	r29
 1e0:	1f 91       	pop	r17
 1e2:	0f 91       	pop	r16
 1e4:	ff 90       	pop	r15
 1e6:	ef 90       	pop	r14
 1e8:	df 90       	pop	r13
 1ea:	cf 90       	pop	r12
 1ec:	bf 90       	pop	r11
 1ee:	af 90       	pop	r10
 1f0:	9f 90       	pop	r9
 1f2:	8f 90       	pop	r8
 1f4:	7f 90       	pop	r7
 1f6:	6f 90       	pop	r6
 1f8:	5f 90       	pop	r5
 1fa:	4f 90       	pop	r4
 1fc:	3f 90       	pop	r3
 1fe:	2f 90       	pop	r2
 200:	08 95       	ret

00000202 <_ZN5Print5printEmi>:
 202:	dc 01       	movw	r26, r24
 204:	21 15       	cp	r18, r1
 206:	31 05       	cpc	r19, r1
 208:	01 f4       	brne	.+0      	; 0x20a <_ZN5Print5printEmi+0x8>
 20a:	ed 91       	ld	r30, X+
 20c:	fc 91       	ld	r31, X
 20e:	01 90       	ld	r0, Z+
 210:	f0 81       	ld	r31, Z
 212:	e0 2d       	mov	r30, r0
 214:	64 2f       	mov	r22, r20
 216:	09 95       	icall
 218:	08 95       	ret
 21a:	0e 94 00 00 	call	0	; 0x0 <_ZN5Print5writeEPKc>
 21e:	08 95       	ret

00000220 <_ZN5Print5printEji>:
 220:	ef 92       	push	r14
 222:	ff 92       	push	r15
 224:	0f 93       	push	r16
 226:	1f 93       	push	r17
 228:	9a 01       	movw	r18, r20
 22a:	7b 01       	movw	r14, r22
 22c:	00 e0       	ldi	r16, 0x00	; 0
 22e:	10 e0       	ldi	r17, 0x00	; 0
 230:	b8 01       	movw	r22, r16
 232:	a7 01       	movw	r20, r14
 234:	0e 94 00 00 	call	0	; 0x0 <_ZN5Print5writeEPKc>
 238:	1f 91       	pop	r17
 23a:	0f 91       	pop	r16
 23c:	ff 90       	pop	r15
 23e:	ef 90       	pop	r14
 240:	08 95       	ret

00000242 <_ZN5Print5printEhi>:
 242:	ef 92       	push	r14
 244:	ff 92       	push	r15
 246:	0f 93       	push	r16
 248:	1f 93       	push	r17
 24a:	9a 01       	movw	r18, r20
 24c:	e6 2e       	mov	r14, r22
 24e:	ff 24       	eor	r15, r15
 250:	00 e0       	ldi	r16, 0x00	; 0
 252:	10 e0       	ldi	r17, 0x00	; 0
 254:	b8 01       	movw	r22, r16
 256:	a7 01       	movw	r20, r14
 258:	0e 94 00 00 	call	0	; 0x0 <_ZN5Print5writeEPKc>
 25c:	1f 91       	pop	r17
 25e:	0f 91       	pop	r16
 260:	ff 90       	pop	r15
 262:	ef 90       	pop	r14
 264:	08 95       	ret

00000266 <_ZN5Print5printEli>:
 266:	ef 92       	push	r14
 268:	ff 92       	push	r15
 26a:	0f 93       	push	r16
 26c:	1f 93       	push	r17
 26e:	cf 93       	push	r28
 270:	df 93       	push	r29
 272:	ec 01       	movw	r28, r24
 274:	7a 01       	movw	r14, r20
 276:	8b 01       	movw	r16, r22
 278:	21 15       	cp	r18, r1
 27a:	31 05       	cpc	r19, r1
 27c:	01 f4       	brne	.+0      	; 0x27e <_ZN5Print5printEli+0x18>
 27e:	e8 81       	ld	r30, Y
 280:	f9 81       	ldd	r31, Y+1	; 0x01
 282:	01 90       	ld	r0, Z+
 284:	f0 81       	ld	r31, Z
 286:	e0 2d       	mov	r30, r0
 288:	64 2f       	mov	r22, r20
 28a:	09 95       	icall
 28c:	00 c0       	rjmp	.+0      	; 0x28e <_ZN5Print5printEli+0x28>
 28e:	2a 30       	cpi	r18, 0x0A	; 10
 290:	31 05       	cpc	r19, r1
 292:	01 f4       	brne	.+0      	; 0x294 <_ZN5Print5printEli+0x2e>
 294:	77 ff       	sbrs	r23, 7
 296:	00 c0       	rjmp	.+0      	; 0x298 <_ZN5Print5printEli+0x32>
 298:	4d e2       	ldi	r20, 0x2D	; 45
 29a:	50 e0       	ldi	r21, 0x00	; 0
 29c:	60 e0       	ldi	r22, 0x00	; 0
 29e:	70 e0       	ldi	r23, 0x00	; 0
 2a0:	20 e0       	ldi	r18, 0x00	; 0
 2a2:	30 e0       	ldi	r19, 0x00	; 0
 2a4:	0e 94 00 00 	call	0	; 0x0 <_ZN5Print5writeEPKc>
 2a8:	10 95       	com	r17
 2aa:	00 95       	com	r16
 2ac:	f0 94       	com	r15
 2ae:	e0 94       	com	r14
 2b0:	e1 1c       	adc	r14, r1
 2b2:	f1 1c       	adc	r15, r1
 2b4:	01 1d       	adc	r16, r1
 2b6:	11 1d       	adc	r17, r1
 2b8:	ce 01       	movw	r24, r28
 2ba:	b8 01       	movw	r22, r16
 2bc:	a7 01       	movw	r20, r14
 2be:	2a e0       	ldi	r18, 0x0A	; 10
 2c0:	0e 94 00 00 	call	0	; 0x0 <_ZN5Print5writeEPKc>
 2c4:	df 91       	pop	r29
 2c6:	cf 91       	pop	r28
 2c8:	1f 91       	pop	r17
 2ca:	0f 91       	pop	r16
 2cc:	ff 90       	pop	r15
 2ce:	ef 90       	pop	r14
 2d0:	08 95       	ret

000002d2 <_ZN5Print5printEii>:
 2d2:	ef 92       	push	r14
 2d4:	ff 92       	push	r15
 2d6:	0f 93       	push	r16
 2d8:	1f 93       	push	r17
 2da:	7b 01       	movw	r14, r22
 2dc:	9a 01       	movw	r18, r20
 2de:	00 27       	eor	r16, r16
 2e0:	f7 fc       	sbrc	r15, 7
 2e2:	00 95       	com	r16
 2e4:	10 2f       	mov	r17, r16
 2e6:	b8 01       	movw	r22, r16
 2e8:	a7 01       	movw	r20, r14
 2ea:	0e 94 00 00 	call	0	; 0x0 <_ZN5Print5writeEPKc>
 2ee:	1f 91       	pop	r17
 2f0:	0f 91       	pop	r16
 2f2:	ff 90       	pop	r15
 2f4:	ef 90       	pop	r14
 2f6:	08 95       	ret

000002f8 <_ZN5Print5printEci>:
 2f8:	ef 92       	push	r14
 2fa:	ff 92       	push	r15
 2fc:	0f 93       	push	r16
 2fe:	1f 93       	push	r17
 300:	9a 01       	movw	r18, r20
 302:	e6 2e       	mov	r14, r22
 304:	ff 24       	eor	r15, r15
 306:	00 e0       	ldi	r16, 0x00	; 0
 308:	10 e0       	ldi	r17, 0x00	; 0
 30a:	b8 01       	movw	r22, r16
 30c:	a7 01       	movw	r20, r14
 30e:	0e 94 00 00 	call	0	; 0x0 <_ZN5Print5writeEPKc>
 312:	1f 91       	pop	r17
 314:	0f 91       	pop	r16
 316:	ff 90       	pop	r15
 318:	ef 90       	pop	r14
 31a:	08 95       	ret

0000031c <_ZN5Print7printlnEv>:
 31c:	0f 93       	push	r16
 31e:	1f 93       	push	r17
 320:	8c 01       	movw	r16, r24
 322:	4d e0       	ldi	r20, 0x0D	; 13
 324:	50 e0       	ldi	r21, 0x00	; 0
 326:	60 e0       	ldi	r22, 0x00	; 0
 328:	70 e0       	ldi	r23, 0x00	; 0
 32a:	20 e0       	ldi	r18, 0x00	; 0
 32c:	30 e0       	ldi	r19, 0x00	; 0
 32e:	0e 94 00 00 	call	0	; 0x0 <_ZN5Print5writeEPKc>
 332:	c8 01       	movw	r24, r16
 334:	4a e0       	ldi	r20, 0x0A	; 10
 336:	50 e0       	ldi	r21, 0x00	; 0
 338:	60 e0       	ldi	r22, 0x00	; 0
 33a:	70 e0       	ldi	r23, 0x00	; 0
 33c:	20 e0       	ldi	r18, 0x00	; 0
 33e:	30 e0       	ldi	r19, 0x00	; 0
 340:	0e 94 00 00 	call	0	; 0x0 <_ZN5Print5writeEPKc>
 344:	1f 91       	pop	r17
 346:	0f 91       	pop	r16
 348:	08 95       	ret

0000034a <_ZN5Print7printlnEmi>:
 34a:	0f 93       	push	r16
 34c:	1f 93       	push	r17
 34e:	8c 01       	movw	r16, r24
 350:	0e 94 00 00 	call	0	; 0x0 <_ZN5Print5writeEPKc>
 354:	c8 01       	movw	r24, r16
 356:	0e 94 00 00 	call	0	; 0x0 <_ZN5Print5writeEPKc>
 35a:	1f 91       	pop	r17
 35c:	0f 91       	pop	r16
 35e:	08 95       	ret

00000360 <_ZN5Print7printlnEji>:
 360:	cf 92       	push	r12
 362:	df 92       	push	r13
 364:	ef 92       	push	r14
 366:	ff 92       	push	r15
 368:	0f 93       	push	r16
 36a:	1f 93       	push	r17
 36c:	8c 01       	movw	r16, r24
 36e:	9a 01       	movw	r18, r20
 370:	6b 01       	movw	r12, r22
 372:	ee 24       	eor	r14, r14
 374:	ff 24       	eor	r15, r15
 376:	b7 01       	movw	r22, r14
 378:	a6 01       	movw	r20, r12
 37a:	0e 94 00 00 	call	0	; 0x0 <_ZN5Print5writeEPKc>
 37e:	c8 01       	movw	r24, r16
 380:	0e 94 00 00 	call	0	; 0x0 <_ZN5Print5writeEPKc>
 384:	1f 91       	pop	r17
 386:	0f 91       	pop	r16
 388:	ff 90       	pop	r15
 38a:	ef 90       	pop	r14
 38c:	df 90       	pop	r13
 38e:	cf 90       	pop	r12
 390:	08 95       	ret

00000392 <_ZN5Print7printlnEhi>:
 392:	cf 92       	push	r12
 394:	df 92       	push	r13
 396:	ef 92       	push	r14
 398:	ff 92       	push	r15
 39a:	0f 93       	push	r16
 39c:	1f 93       	push	r17
 39e:	8c 01       	movw	r16, r24
 3a0:	9a 01       	movw	r18, r20
 3a2:	c6 2e       	mov	r12, r22
 3a4:	dd 24       	eor	r13, r13
 3a6:	ee 24       	eor	r14, r14
 3a8:	ff 24       	eor	r15, r15
 3aa:	b7 01       	movw	r22, r14
 3ac:	a6 01       	movw	r20, r12
 3ae:	0e 94 00 00 	call	0	; 0x0 <_ZN5Print5writeEPKc>
 3b2:	c8 01       	movw	r24, r16
 3b4:	0e 94 00 00 	call	0	; 0x0 <_ZN5Print5writeEPKc>
 3b8:	1f 91       	pop	r17
 3ba:	0f 91       	pop	r16
 3bc:	ff 90       	pop	r15
 3be:	ef 90       	pop	r14
 3c0:	df 90       	pop	r13
 3c2:	cf 90       	pop	r12
 3c4:	08 95       	ret

000003c6 <_ZN5Print7printlnEPKc>:
 3c6:	0f 93       	push	r16
 3c8:	1f 93       	push	r17
 3ca:	8c 01       	movw	r16, r24
 3cc:	0e 94 00 00 	call	0	; 0x0 <_ZN5Print5writeEPKc>
 3d0:	c8 01       	movw	r24, r16
 3d2:	0e 94 00 00 	call	0	; 0x0 <_ZN5Print5writeEPKc>
 3d6:	1f 91       	pop	r17
 3d8:	0f 91       	pop	r16
 3da:	08 95       	ret

000003dc <_ZN5Print7printlnERK6String>:
 3dc:	0f 93       	push	r16
 3de:	1f 93       	push	r17
 3e0:	8c 01       	movw	r16, r24
 3e2:	0e 94 00 00 	call	0	; 0x0 <_ZN5Print5writeEPKc>
 3e6:	c8 01       	movw	r24, r16
 3e8:	0e 94 00 00 	call	0	; 0x0 <_ZN5Print5writeEPKc>
 3ec:	1f 91       	pop	r17
 3ee:	0f 91       	pop	r16
 3f0:	08 95       	ret

000003f2 <_ZN5Print7printlnEli>:
 3f2:	0f 93       	push	r16
 3f4:	1f 93       	push	r17
 3f6:	8c 01       	movw	r16, r24
 3f8:	0e 94 00 00 	call	0	; 0x0 <_ZN5Print5writeEPKc>
 3fc:	c8 01       	movw	r24, r16
 3fe:	0e 94 00 00 	call	0	; 0x0 <_ZN5Print5writeEPKc>
 402:	1f 91       	pop	r17
 404:	0f 91       	pop	r16
 406:	08 95       	ret

00000408 <_ZN5Print7printlnEii>:
 408:	cf 92       	push	r12
 40a:	df 92       	push	r13
 40c:	ef 92       	push	r14
 40e:	ff 92       	push	r15
 410:	0f 93       	push	r16
 412:	1f 93       	push	r17
 414:	8c 01       	movw	r16, r24
 416:	6b 01       	movw	r12, r22
 418:	9a 01       	movw	r18, r20
 41a:	ee 24       	eor	r14, r14
 41c:	d7 fc       	sbrc	r13, 7
 41e:	e0 94       	com	r14
 420:	fe 2c       	mov	r15, r14
 422:	b7 01       	movw	r22, r14
 424:	a6 01       	movw	r20, r12
 426:	0e 94 00 00 	call	0	; 0x0 <_ZN5Print5writeEPKc>
 42a:	c8 01       	movw	r24, r16
 42c:	0e 94 00 00 	call	0	; 0x0 <_ZN5Print5writeEPKc>
 430:	1f 91       	pop	r17
 432:	0f 91       	pop	r16
 434:	ff 90       	pop	r15
 436:	ef 90       	pop	r14
 438:	df 90       	pop	r13
 43a:	cf 90       	pop	r12
 43c:	08 95       	ret

0000043e <_ZN5Print7printlnEci>:
 43e:	cf 92       	push	r12
 440:	df 92       	push	r13
 442:	ef 92       	push	r14
 444:	ff 92       	push	r15
 446:	0f 93       	push	r16
 448:	1f 93       	push	r17
 44a:	8c 01       	movw	r16, r24
 44c:	9a 01       	movw	r18, r20
 44e:	c6 2e       	mov	r12, r22
 450:	dd 24       	eor	r13, r13
 452:	ee 24       	eor	r14, r14
 454:	ff 24       	eor	r15, r15
 456:	b7 01       	movw	r22, r14
 458:	a6 01       	movw	r20, r12
 45a:	0e 94 00 00 	call	0	; 0x0 <_ZN5Print5writeEPKc>
 45e:	c8 01       	movw	r24, r16
 460:	0e 94 00 00 	call	0	; 0x0 <_ZN5Print5writeEPKc>
 464:	1f 91       	pop	r17
 466:	0f 91       	pop	r16
 468:	ff 90       	pop	r15
 46a:	ef 90       	pop	r14
 46c:	df 90       	pop	r13
 46e:	cf 90       	pop	r12
 470:	08 95       	ret

00000472 <_ZN5Print10printFloatEdh>:
 472:	9f 92       	push	r9
 474:	af 92       	push	r10
 476:	bf 92       	push	r11
 478:	cf 92       	push	r12
 47a:	df 92       	push	r13
 47c:	ef 92       	push	r14
 47e:	ff 92       	push	r15
 480:	0f 93       	push	r16
 482:	1f 93       	push	r17
 484:	cf 93       	push	r28
 486:	df 93       	push	r29
 488:	ec 01       	movw	r28, r24
 48a:	7a 01       	movw	r14, r20
 48c:	8b 01       	movw	r16, r22
 48e:	92 2e       	mov	r9, r18
 490:	cb 01       	movw	r24, r22
 492:	ba 01       	movw	r22, r20
 494:	20 e0       	ldi	r18, 0x00	; 0
 496:	30 e0       	ldi	r19, 0x00	; 0
 498:	40 e0       	ldi	r20, 0x00	; 0
 49a:	50 e0       	ldi	r21, 0x00	; 0
 49c:	0e 94 00 00 	call	0	; 0x0 <_ZN5Print5writeEPKc>
 4a0:	88 23       	and	r24, r24
 4a2:	04 f4       	brge	.+0      	; 0x4a4 <_ZN5Print10printFloatEdh+0x32>
 4a4:	ce 01       	movw	r24, r28
 4a6:	4d e2       	ldi	r20, 0x2D	; 45
 4a8:	50 e0       	ldi	r21, 0x00	; 0
 4aa:	60 e0       	ldi	r22, 0x00	; 0
 4ac:	70 e0       	ldi	r23, 0x00	; 0
 4ae:	20 e0       	ldi	r18, 0x00	; 0
 4b0:	30 e0       	ldi	r19, 0x00	; 0
 4b2:	0e 94 00 00 	call	0	; 0x0 <_ZN5Print5writeEPKc>
 4b6:	17 fb       	bst	r17, 7
 4b8:	10 95       	com	r17
 4ba:	17 f9       	bld	r17, 7
 4bc:	10 95       	com	r17
 4be:	20 e0       	ldi	r18, 0x00	; 0
 4c0:	30 e0       	ldi	r19, 0x00	; 0
 4c2:	40 e0       	ldi	r20, 0x00	; 0
 4c4:	5f e3       	ldi	r21, 0x3F	; 63
 4c6:	aa 24       	eor	r10, r10
 4c8:	00 c0       	rjmp	.+0      	; 0x4ca <_ZN5Print10printFloatEdh+0x58>
 4ca:	ca 01       	movw	r24, r20
 4cc:	b9 01       	movw	r22, r18
 4ce:	20 e0       	ldi	r18, 0x00	; 0
 4d0:	30 e0       	ldi	r19, 0x00	; 0
 4d2:	40 e2       	ldi	r20, 0x20	; 32
 4d4:	51 e4       	ldi	r21, 0x41	; 65
 4d6:	0e 94 00 00 	call	0	; 0x0 <_ZN5Print5writeEPKc>
 4da:	9b 01       	movw	r18, r22
 4dc:	ac 01       	movw	r20, r24
 4de:	a3 94       	inc	r10
 4e0:	a9 14       	cp	r10, r9
 4e2:	00 f0       	brcs	.+0      	; 0x4e4 <_ZN5Print10printFloatEdh+0x72>
 4e4:	c8 01       	movw	r24, r16
 4e6:	b7 01       	movw	r22, r14
 4e8:	0e 94 00 00 	call	0	; 0x0 <_ZN5Print5writeEPKc>
 4ec:	5b 01       	movw	r10, r22
 4ee:	6c 01       	movw	r12, r24
 4f0:	0e 94 00 00 	call	0	; 0x0 <_ZN5Print5writeEPKc>
 4f4:	7b 01       	movw	r14, r22
 4f6:	8c 01       	movw	r16, r24
 4f8:	ce 01       	movw	r24, r28
 4fa:	b8 01       	movw	r22, r16
 4fc:	a7 01       	movw	r20, r14
 4fe:	2a e0       	ldi	r18, 0x0A	; 10
 500:	30 e0       	ldi	r19, 0x00	; 0
 502:	0e 94 00 00 	call	0	; 0x0 <_ZN5Print5writeEPKc>
 506:	99 20       	and	r9, r9
 508:	01 f0       	breq	.+0      	; 0x50a <_ZN5Print10printFloatEdh+0x98>
 50a:	ce 01       	movw	r24, r28
 50c:	60 e0       	ldi	r22, 0x00	; 0
 50e:	70 e0       	ldi	r23, 0x00	; 0
 510:	0e 94 00 00 	call	0	; 0x0 <_ZN5Print5writeEPKc>
 514:	c8 01       	movw	r24, r16
 516:	b7 01       	movw	r22, r14
 518:	0e 94 00 00 	call	0	; 0x0 <_ZN5Print5writeEPKc>
 51c:	9b 01       	movw	r18, r22
 51e:	ac 01       	movw	r20, r24
 520:	c6 01       	movw	r24, r12
 522:	b5 01       	movw	r22, r10
 524:	0e 94 00 00 	call	0	; 0x0 <_ZN5Print5writeEPKc>
 528:	00 c0       	rjmp	.+0      	; 0x52a <_ZN5Print10printFloatEdh+0xb8>
 52a:	20 e0       	ldi	r18, 0x00	; 0
 52c:	30 e0       	ldi	r19, 0x00	; 0
 52e:	40 e2       	ldi	r20, 0x20	; 32
 530:	51 e4       	ldi	r21, 0x41	; 65
 532:	0e 94 00 00 	call	0	; 0x0 <_ZN5Print5writeEPKc>
 536:	7b 01       	movw	r14, r22
 538:	8c 01       	movw	r16, r24
 53a:	0e 94 00 00 	call	0	; 0x0 <_ZN5Print5writeEPKc>
 53e:	5b 01       	movw	r10, r22
 540:	6c 01       	movw	r12, r24
 542:	cc 24       	eor	r12, r12
 544:	b7 fc       	sbrc	r11, 7
 546:	c0 94       	com	r12
 548:	dc 2c       	mov	r13, r12
 54a:	ce 01       	movw	r24, r28
 54c:	b6 01       	movw	r22, r12
 54e:	a5 01       	movw	r20, r10
 550:	2a e0       	ldi	r18, 0x0A	; 10
 552:	30 e0       	ldi	r19, 0x00	; 0
 554:	0e 94 00 00 	call	0	; 0x0 <_ZN5Print5writeEPKc>
 558:	c6 01       	movw	r24, r12
 55a:	b5 01       	movw	r22, r10
 55c:	0e 94 00 00 	call	0	; 0x0 <_ZN5Print5writeEPKc>
 560:	9b 01       	movw	r18, r22
 562:	ac 01       	movw	r20, r24
 564:	c8 01       	movw	r24, r16
 566:	b7 01       	movw	r22, r14
 568:	0e 94 00 00 	call	0	; 0x0 <_ZN5Print5writeEPKc>
 56c:	9a 94       	dec	r9
 56e:	99 20       	and	r9, r9
 570:	01 f4       	brne	.+0      	; 0x572 <_ZN5Print10printFloatEdh+0x100>
 572:	df 91       	pop	r29
 574:	cf 91       	pop	r28
 576:	1f 91       	pop	r17
 578:	0f 91       	pop	r16
 57a:	ff 90       	pop	r15
 57c:	ef 90       	pop	r14
 57e:	df 90       	pop	r13
 580:	cf 90       	pop	r12
 582:	bf 90       	pop	r11
 584:	af 90       	pop	r10
 586:	9f 90       	pop	r9
 588:	08 95       	ret

0000058a <_ZN5Print5printEdi>:
 58a:	0e 94 00 00 	call	0	; 0x0 <_ZN5Print5writeEPKc>
 58e:	08 95       	ret

00000590 <_ZN5Print7printlnEdi>:
 590:	0f 93       	push	r16
 592:	1f 93       	push	r17
 594:	8c 01       	movw	r16, r24
 596:	0e 94 00 00 	call	0	; 0x0 <_ZN5Print5writeEPKc>
 59a:	c8 01       	movw	r24, r16
 59c:	0e 94 00 00 	call	0	; 0x0 <_ZN5Print5writeEPKc>
 5a0:	1f 91       	pop	r17
 5a2:	0f 91       	pop	r16
 5a4:	08 95       	ret

Tone.o:     file format elf32-avr

Sections:
Idx Name          Size      VMA       LMA       File off  Algn
  0 .text         00000564  00000000  00000000  00000034  2**0
                  CONTENTS, ALLOC, LOAD, RELOC, READONLY, CODE
  1 .data         00000001  00000000  00000000  00000598  2**0
                  CONTENTS, ALLOC, LOAD, DATA
  2 .bss          00000015  00000000  00000000  00000599  2**0
                  ALLOC
  3 .progmem.data 00000001  00000000  00000000  00000599  2**0
                  CONTENTS, ALLOC, LOAD, READONLY, DATA

Disassembly of section .text:

00000000 <_Z12disableTimerh>:
   0:	81 30       	cpi	r24, 0x01	; 1
   2:	01 f0       	breq	.+0      	; 0x4 <_Z12disableTimerh+0x4>
   4:	81 30       	cpi	r24, 0x01	; 1
   6:	00 f0       	brcs	.+0      	; 0x8 <_Z12disableTimerh+0x8>
   8:	82 30       	cpi	r24, 0x02	; 2
   a:	01 f4       	brne	.+0      	; 0xc <_Z12disableTimerh+0xc>
   c:	00 c0       	rjmp	.+0      	; 0xe <_Z12disableTimerh+0xe>
   e:	10 92 6e 00 	sts	0x006E, r1
  12:	08 95       	ret
  14:	80 91 6f 00 	lds	r24, 0x006F
  18:	8d 7f       	andi	r24, 0xFD	; 253
  1a:	80 93 6f 00 	sts	0x006F, r24
  1e:	08 95       	ret
  20:	80 91 70 00 	lds	r24, 0x0070
  24:	8d 7f       	andi	r24, 0xFD	; 253
  26:	80 93 70 00 	sts	0x0070, r24
  2a:	81 e0       	ldi	r24, 0x01	; 1
  2c:	80 93 b0 00 	sts	0x00B0, r24
  30:	80 91 b1 00 	lds	r24, 0x00B1
  34:	88 7f       	andi	r24, 0xF8	; 248
  36:	84 60       	ori	r24, 0x04	; 4
  38:	80 93 b1 00 	sts	0x00B1, r24
  3c:	10 92 b3 00 	sts	0x00B3, r1
  40:	08 95       	ret

00000042 <__vector_7>:
  42:	1f 92       	push	r1
  44:	0f 92       	push	r0
  46:	0f b6       	in	r0, 0x3f	; 63
  48:	0f 92       	push	r0
  4a:	11 24       	eor	r1, r1
  4c:	2f 93       	push	r18
  4e:	3f 93       	push	r19
  50:	4f 93       	push	r20
  52:	5f 93       	push	r21
  54:	6f 93       	push	r22
  56:	7f 93       	push	r23
  58:	8f 93       	push	r24
  5a:	9f 93       	push	r25
  5c:	af 93       	push	r26
  5e:	bf 93       	push	r27
  60:	ef 93       	push	r30
  62:	ff 93       	push	r31
  64:	80 91 00 00 	lds	r24, 0x0000
  68:	90 91 00 00 	lds	r25, 0x0000
  6c:	a0 91 00 00 	lds	r26, 0x0000
  70:	b0 91 00 00 	lds	r27, 0x0000
  74:	00 97       	sbiw	r24, 0x00	; 0
  76:	a1 05       	cpc	r26, r1
  78:	b1 05       	cpc	r27, r1
  7a:	01 f0       	breq	.+0      	; 0x7c <__vector_7+0x3a>
  7c:	e0 91 00 00 	lds	r30, 0x0000
  80:	f0 91 00 00 	lds	r31, 0x0000
  84:	80 81       	ld	r24, Z
  86:	90 91 00 00 	lds	r25, 0x0000
  8a:	89 27       	eor	r24, r25
  8c:	80 83       	st	Z, r24
  8e:	80 91 00 00 	lds	r24, 0x0000
  92:	90 91 00 00 	lds	r25, 0x0000
  96:	a0 91 00 00 	lds	r26, 0x0000
  9a:	b0 91 00 00 	lds	r27, 0x0000
  9e:	18 16       	cp	r1, r24
  a0:	19 06       	cpc	r1, r25
  a2:	1a 06       	cpc	r1, r26
  a4:	1b 06       	cpc	r1, r27
  a6:	04 f4       	brge	.+0      	; 0xa8 <__vector_7+0x66>
  a8:	80 91 00 00 	lds	r24, 0x0000
  ac:	90 91 00 00 	lds	r25, 0x0000
  b0:	a0 91 00 00 	lds	r26, 0x0000
  b4:	b0 91 00 00 	lds	r27, 0x0000
  b8:	01 97       	sbiw	r24, 0x01	; 1
  ba:	a1 09       	sbc	r26, r1
  bc:	b1 09       	sbc	r27, r1
  be:	80 93 00 00 	sts	0x0000, r24
  c2:	90 93 00 00 	sts	0x0000, r25
  c6:	a0 93 00 00 	sts	0x0000, r26
  ca:	b0 93 00 00 	sts	0x0000, r27
  ce:	00 c0       	rjmp	.+0      	; 0xd0 <__vector_7+0x8e>
  d0:	82 e0       	ldi	r24, 0x02	; 2
  d2:	0e 94 00 00 	call	0	; 0x0 <_Z12disableTimerh>
  d6:	e0 91 00 00 	lds	r30, 0x0000
  da:	f0 91 00 00 	lds	r31, 0x0000
  de:	90 81       	ld	r25, Z
  e0:	80 91 00 00 	lds	r24, 0x0000
  e4:	80 95       	com	r24
  e6:	89 23       	and	r24, r25
  e8:	80 83       	st	Z, r24
  ea:	ff 91       	pop	r31
  ec:	ef 91       	pop	r30
  ee:	bf 91       	pop	r27
  f0:	af 91       	pop	r26
  f2:	9f 91       	pop	r25
  f4:	8f 91       	pop	r24
  f6:	7f 91       	pop	r23
  f8:	6f 91       	pop	r22
  fa:	5f 91       	pop	r21
  fc:	4f 91       	pop	r20
  fe:	3f 91       	pop	r19
 100:	2f 91       	pop	r18
 102:	0f 90       	pop	r0
 104:	0f be       	out	0x3f, r0	; 63
 106:	0f 90       	pop	r0
 108:	1f 90       	pop	r1
 10a:	18 95       	reti

0000010c <_Z6noToneh>:
 10c:	1f 93       	push	r17
 10e:	18 2f       	mov	r17, r24
 110:	80 91 00 00 	lds	r24, 0x0000
 114:	81 17       	cp	r24, r17
 116:	01 f0       	breq	.+0      	; 0x118 <_Z6noToneh+0xc>
 118:	9f ef       	ldi	r25, 0xFF	; 255
 11a:	00 c0       	rjmp	.+0      	; 0x11c <_Z6noToneh+0x10>
 11c:	e0 e0       	ldi	r30, 0x00	; 0
 11e:	f0 e0       	ldi	r31, 0x00	; 0
 120:	94 91       	lpm	r25, Z+
 122:	8f ef       	ldi	r24, 0xFF	; 255
 124:	80 93 00 00 	sts	0x0000, r24
 128:	89 2f       	mov	r24, r25
 12a:	0e 94 00 00 	call	0	; 0x0 <_Z12disableTimerh>
 12e:	81 2f       	mov	r24, r17
 130:	60 e0       	ldi	r22, 0x00	; 0
 132:	0e 94 00 00 	call	0	; 0x0 <_Z12disableTimerh>
 136:	1f 91       	pop	r17
 138:	08 95       	ret

0000013a <_Z4tonehjm>:
 13a:	2f 92       	push	r2
 13c:	3f 92       	push	r3
 13e:	5f 92       	push	r5
 140:	6f 92       	push	r6
 142:	7f 92       	push	r7
 144:	8f 92       	push	r8
 146:	9f 92       	push	r9
 148:	af 92       	push	r10
 14a:	bf 92       	push	r11
 14c:	cf 92       	push	r12
 14e:	df 92       	push	r13
 150:	ef 92       	push	r14
 152:	ff 92       	push	r15
 154:	0f 93       	push	r16
 156:	1f 93       	push	r17
 158:	df 93       	push	r29
 15a:	cf 93       	push	r28
 15c:	00 d0       	rcall	.+0      	; 0x15e <_Z4tonehjm+0x24>
 15e:	00 d0       	rcall	.+0      	; 0x160 <_Z4tonehjm+0x26>
 160:	cd b7       	in	r28, 0x3d	; 61
 162:	de b7       	in	r29, 0x3e	; 62
 164:	a8 2f       	mov	r26, r24
 166:	1b 01       	movw	r2, r22
 168:	29 83       	std	Y+1, r18	; 0x01
 16a:	3a 83       	std	Y+2, r19	; 0x02
 16c:	4b 83       	std	Y+3, r20	; 0x03
 16e:	5c 83       	std	Y+4, r21	; 0x04
 170:	80 91 00 00 	lds	r24, 0x0000
 174:	8a 17       	cp	r24, r26
 176:	01 f4       	brne	.+0      	; 0x178 <_Z4tonehjm+0x3e>
 178:	e0 e0       	ldi	r30, 0x00	; 0
 17a:	f0 e0       	ldi	r31, 0x00	; 0
 17c:	54 90       	lpm	r5, Z+
 17e:	00 c0       	rjmp	.+0      	; 0x180 <_Z4tonehjm+0x46>
 180:	8f 3f       	cpi	r24, 0xFF	; 255
 182:	01 f0       	breq	.+0      	; 0x184 <_Z4tonehjm+0x4a>
 184:	00 c0       	rjmp	.+0      	; 0x186 <_Z4tonehjm+0x4c>
 186:	a0 93 00 00 	sts	0x0000, r26
 18a:	e0 e0       	ldi	r30, 0x00	; 0
 18c:	f0 e0       	ldi	r31, 0x00	; 0
 18e:	54 90       	lpm	r5, Z+
 190:	2f ef       	ldi	r18, 0xFF	; 255
 192:	52 16       	cp	r5, r18
 194:	01 f4       	brne	.+0      	; 0x196 <_Z4tonehjm+0x5c>
 196:	00 c0       	rjmp	.+0      	; 0x198 <_Z4tonehjm+0x5e>
 198:	81 e0       	ldi	r24, 0x01	; 1
 19a:	58 16       	cp	r5, r24
 19c:	01 f0       	breq	.+0      	; 0x19e <_Z4tonehjm+0x64>
 19e:	92 e0       	ldi	r25, 0x02	; 2
 1a0:	59 16       	cp	r5, r25
 1a2:	01 f4       	brne	.+0      	; 0x1a4 <_Z4tonehjm+0x6a>
 1a4:	00 c0       	rjmp	.+0      	; 0x1a6 <_Z4tonehjm+0x6c>
 1a6:	55 20       	and	r5, r5
 1a8:	01 f0       	breq	.+0      	; 0x1aa <_Z4tonehjm+0x70>
 1aa:	00 c0       	rjmp	.+0      	; 0x1ac <_Z4tonehjm+0x72>
 1ac:	14 bc       	out	0x24, r1	; 36
 1ae:	15 bc       	out	0x25, r1	; 37
 1b0:	84 b5       	in	r24, 0x24	; 36
 1b2:	82 60       	ori	r24, 0x02	; 2
 1b4:	84 bd       	out	0x24, r24	; 36
 1b6:	85 b5       	in	r24, 0x25	; 37
 1b8:	81 60       	ori	r24, 0x01	; 1
 1ba:	85 bd       	out	0x25, r24	; 37
 1bc:	2a 2f       	mov	r18, r26
 1be:	30 e0       	ldi	r19, 0x00	; 0
 1c0:	f9 01       	movw	r30, r18
 1c2:	e0 50       	subi	r30, 0x00	; 0
 1c4:	f0 40       	sbci	r31, 0x00	; 0
 1c6:	e4 91       	lpm	r30, Z+
 1c8:	f0 e0       	ldi	r31, 0x00	; 0
 1ca:	ee 0f       	add	r30, r30
 1cc:	ff 1f       	adc	r31, r31
 1ce:	e0 50       	subi	r30, 0x00	; 0
 1d0:	f0 40       	sbci	r31, 0x00	; 0
 1d2:	85 91       	lpm	r24, Z+
 1d4:	94 91       	lpm	r25, Z+
 1d6:	90 93 00 00 	sts	0x0000, r25
 1da:	80 93 00 00 	sts	0x0000, r24
 1de:	20 50       	subi	r18, 0x00	; 0
 1e0:	30 40       	sbci	r19, 0x00	; 0
 1e2:	f9 01       	movw	r30, r18
 1e4:	84 91       	lpm	r24, Z+
 1e6:	80 93 00 00 	sts	0x0000, r24
 1ea:	00 c0       	rjmp	.+0      	; 0x1ec <_Z4tonehjm+0xb2>
 1ec:	10 92 80 00 	sts	0x0080, r1
 1f0:	10 92 81 00 	sts	0x0081, r1
 1f4:	80 91 81 00 	lds	r24, 0x0081
 1f8:	88 60       	ori	r24, 0x08	; 8
 1fa:	80 93 81 00 	sts	0x0081, r24
 1fe:	80 91 81 00 	lds	r24, 0x0081
 202:	81 60       	ori	r24, 0x01	; 1
 204:	80 93 81 00 	sts	0x0081, r24
 208:	2a 2f       	mov	r18, r26
 20a:	30 e0       	ldi	r19, 0x00	; 0
 20c:	f9 01       	movw	r30, r18
 20e:	e0 50       	subi	r30, 0x00	; 0
 210:	f0 40       	sbci	r31, 0x00	; 0
 212:	e4 91       	lpm	r30, Z+
 214:	f0 e0       	ldi	r31, 0x00	; 0
 216:	ee 0f       	add	r30, r30
 218:	ff 1f       	adc	r31, r31
 21a:	e0 50       	subi	r30, 0x00	; 0
 21c:	f0 40       	sbci	r31, 0x00	; 0
 21e:	85 91       	lpm	r24, Z+
 220:	94 91       	lpm	r25, Z+
 222:	90 93 00 00 	sts	0x0000, r25
 226:	80 93 00 00 	sts	0x0000, r24
 22a:	20 50       	subi	r18, 0x00	; 0
 22c:	30 40       	sbci	r19, 0x00	; 0
 22e:	f9 01       	movw	r30, r18
 230:	84 91       	lpm	r24, Z+
 232:	80 93 00 00 	sts	0x0000, r24
 236:	00 c0       	rjmp	.+0      	; 0x238 <_Z4tonehjm+0xfe>
 238:	10 92 b0 00 	sts	0x00B0, r1
 23c:	10 92 b1 00 	sts	0x00B1, r1
 240:	80 91 b0 00 	lds	r24, 0x00B0
 244:	82 60       	ori	r24, 0x02	; 2
 246:	80 93 b0 00 	sts	0x00B0, r24
 24a:	80 91 b1 00 	lds	r24, 0x00B1
 24e:	81 60       	ori	r24, 0x01	; 1
 250:	80 93 b1 00 	sts	0x00B1, r24
 254:	2a 2f       	mov	r18, r26
 256:	30 e0       	ldi	r19, 0x00	; 0
 258:	f9 01       	movw	r30, r18
 25a:	e0 50       	subi	r30, 0x00	; 0
 25c:	f0 40       	sbci	r31, 0x00	; 0
 25e:	e4 91       	lpm	r30, Z+
 260:	f0 e0       	ldi	r31, 0x00	; 0
 262:	ee 0f       	add	r30, r30
 264:	ff 1f       	adc	r31, r31
 266:	e0 50       	subi	r30, 0x00	; 0
 268:	f0 40       	sbci	r31, 0x00	; 0
 26a:	85 91       	lpm	r24, Z+
 26c:	94 91       	lpm	r25, Z+
 26e:	90 93 00 00 	sts	0x0000, r25
 272:	80 93 00 00 	sts	0x0000, r24
 276:	20 50       	subi	r18, 0x00	; 0
 278:	30 40       	sbci	r19, 0x00	; 0
 27a:	f9 01       	movw	r30, r18
 27c:	84 91       	lpm	r24, Z+
 27e:	80 93 00 00 	sts	0x0000, r24
 282:	00 c0       	rjmp	.+0      	; 0x284 <_Z4tonehjm+0x14a>
 284:	57 fc       	sbrc	r5, 7
 286:	00 c0       	rjmp	.+0      	; 0x288 <_Z4tonehjm+0x14e>
 288:	8a 2f       	mov	r24, r26
 28a:	61 e0       	ldi	r22, 0x01	; 1
 28c:	0e 94 00 00 	call	0	; 0x0 <_Z12disableTimerh>
 290:	55 20       	and	r5, r5
 292:	01 f0       	breq	.+0      	; 0x294 <_Z4tonehjm+0x15a>
 294:	f2 e0       	ldi	r31, 0x02	; 2
 296:	5f 16       	cp	r5, r31
 298:	01 f0       	breq	.+0      	; 0x29a <_Z4tonehjm+0x160>
 29a:	00 c0       	rjmp	.+0      	; 0x29c <_Z4tonehjm+0x162>
 29c:	31 01       	movw	r6, r2
 29e:	88 24       	eor	r8, r8
 2a0:	99 24       	eor	r9, r9
 2a2:	60 e0       	ldi	r22, 0x00	; 0
 2a4:	72 e1       	ldi	r23, 0x12	; 18
 2a6:	8a e7       	ldi	r24, 0x7A	; 122
 2a8:	90 e0       	ldi	r25, 0x00	; 0
 2aa:	a4 01       	movw	r20, r8
 2ac:	93 01       	movw	r18, r6
 2ae:	0e 94 00 00 	call	0	; 0x0 <_Z12disableTimerh>
 2b2:	59 01       	movw	r10, r18
 2b4:	6a 01       	movw	r12, r20
 2b6:	86 01       	movw	r16, r12
 2b8:	75 01       	movw	r14, r10
 2ba:	08 94       	sec
 2bc:	e1 08       	sbc	r14, r1
 2be:	f1 08       	sbc	r15, r1
 2c0:	01 09       	sbc	r16, r1
 2c2:	11 09       	sbc	r17, r1
 2c4:	2f ef       	ldi	r18, 0xFF	; 255
 2c6:	e2 16       	cp	r14, r18
 2c8:	f1 04       	cpc	r15, r1
 2ca:	01 05       	cpc	r16, r1
 2cc:	11 05       	cpc	r17, r1
 2ce:	01 f0       	breq	.+0      	; 0x2d0 <_Z4tonehjm+0x196>
 2d0:	00 f4       	brcc	.+0      	; 0x2d2 <_Z4tonehjm+0x198>
 2d2:	00 c0       	rjmp	.+0      	; 0x2d4 <_Z4tonehjm+0x19a>
 2d4:	60 e4       	ldi	r22, 0x40	; 64
 2d6:	72 e4       	ldi	r23, 0x42	; 66
 2d8:	8f e0       	ldi	r24, 0x0F	; 15
 2da:	90 e0       	ldi	r25, 0x00	; 0
 2dc:	a4 01       	movw	r20, r8
 2de:	93 01       	movw	r18, r6
 2e0:	0e 94 00 00 	call	0	; 0x0 <_Z12disableTimerh>
 2e4:	79 01       	movw	r14, r18
 2e6:	8a 01       	movw	r16, r20
 2e8:	08 94       	sec
 2ea:	e1 08       	sbc	r14, r1
 2ec:	f1 08       	sbc	r15, r1
 2ee:	01 09       	sbc	r16, r1
 2f0:	11 09       	sbc	r17, r1
 2f2:	82 e0       	ldi	r24, 0x02	; 2
 2f4:	58 16       	cp	r5, r24
 2f6:	01 f4       	brne	.+0      	; 0x2f8 <_Z4tonehjm+0x1be>
 2f8:	9f ef       	ldi	r25, 0xFF	; 255
 2fa:	e9 16       	cp	r14, r25
 2fc:	f1 04       	cpc	r15, r1
 2fe:	01 05       	cpc	r16, r1
 300:	11 05       	cpc	r17, r1
 302:	01 f0       	breq	.+0      	; 0x304 <_Z4tonehjm+0x1ca>
 304:	00 f4       	brcc	.+0      	; 0x306 <_Z4tonehjm+0x1cc>
 306:	00 c0       	rjmp	.+0      	; 0x308 <_Z4tonehjm+0x1ce>
 308:	60 e9       	ldi	r22, 0x90	; 144
 30a:	70 ed       	ldi	r23, 0xD0	; 208
 30c:	83 e0       	ldi	r24, 0x03	; 3
 30e:	90 e0       	ldi	r25, 0x00	; 0
 310:	a4 01       	movw	r20, r8
 312:	93 01       	movw	r18, r6
 314:	0e 94 00 00 	call	0	; 0x0 <_Z12disableTimerh>
 318:	79 01       	movw	r14, r18
 31a:	8a 01       	movw	r16, r20
 31c:	08 94       	sec
 31e:	e1 08       	sbc	r14, r1
 320:	f1 08       	sbc	r15, r1
 322:	01 09       	sbc	r16, r1
 324:	11 09       	sbc	r17, r1
 326:	83 e0       	ldi	r24, 0x03	; 3
 328:	af ef       	ldi	r26, 0xFF	; 255
 32a:	ea 16       	cp	r14, r26
 32c:	f1 04       	cpc	r15, r1
 32e:	01 05       	cpc	r16, r1
 330:	11 05       	cpc	r17, r1
 332:	01 f0       	breq	.+0      	; 0x334 <_Z4tonehjm+0x1fa>
 334:	00 f4       	brcc	.+0      	; 0x336 <_Z4tonehjm+0x1fc>
 336:	00 c0       	rjmp	.+0      	; 0x338 <_Z4tonehjm+0x1fe>
 338:	68 e4       	ldi	r22, 0x48	; 72
 33a:	78 ee       	ldi	r23, 0xE8	; 232
 33c:	81 e0       	ldi	r24, 0x01	; 1
 33e:	90 e0       	ldi	r25, 0x00	; 0
 340:	a4 01       	movw	r20, r8
 342:	93 01       	movw	r18, r6
 344:	0e 94 00 00 	call	0	; 0x0 <_Z12disableTimerh>
 348:	79 01       	movw	r14, r18
 34a:	8a 01       	movw	r16, r20
 34c:	08 94       	sec
 34e:	e1 08       	sbc	r14, r1
 350:	f1 08       	sbc	r15, r1
 352:	01 09       	sbc	r16, r1
 354:	11 09       	sbc	r17, r1
 356:	55 20       	and	r5, r5
 358:	01 f4       	brne	.+0      	; 0x35a <_Z4tonehjm+0x220>
 35a:	83 e0       	ldi	r24, 0x03	; 3
 35c:	00 c0       	rjmp	.+0      	; 0x35e <_Z4tonehjm+0x224>
 35e:	b2 e0       	ldi	r27, 0x02	; 2
 360:	5b 16       	cp	r5, r27
 362:	01 f0       	breq	.+0      	; 0x364 <_Z4tonehjm+0x22a>
 364:	84 e0       	ldi	r24, 0x04	; 4
 366:	00 c0       	rjmp	.+0      	; 0x368 <_Z4tonehjm+0x22e>
 368:	ef ef       	ldi	r30, 0xFF	; 255
 36a:	ee 16       	cp	r14, r30
 36c:	f1 04       	cpc	r15, r1
 36e:	01 05       	cpc	r16, r1
 370:	11 05       	cpc	r17, r1
 372:	01 f0       	breq	.+0      	; 0x374 <_Z4tonehjm+0x23a>
 374:	00 f4       	brcc	.+0      	; 0x376 <_Z4tonehjm+0x23c>
 376:	00 c0       	rjmp	.+0      	; 0x378 <_Z4tonehjm+0x23e>
 378:	64 e2       	ldi	r22, 0x24	; 36
 37a:	74 ef       	ldi	r23, 0xF4	; 244
 37c:	80 e0       	ldi	r24, 0x00	; 0
 37e:	90 e0       	ldi	r25, 0x00	; 0
 380:	a4 01       	movw	r20, r8
 382:	93 01       	movw	r18, r6
 384:	0e 94 00 00 	call	0	; 0x0 <_Z12disableTimerh>
 388:	79 01       	movw	r14, r18
 38a:	8a 01       	movw	r16, r20
 38c:	08 94       	sec
 38e:	e1 08       	sbc	r14, r1
 390:	f1 08       	sbc	r15, r1
 392:	01 09       	sbc	r16, r1
 394:	11 09       	sbc	r17, r1
 396:	85 e0       	ldi	r24, 0x05	; 5
 398:	ff ef       	ldi	r31, 0xFF	; 255
 39a:	ef 16       	cp	r14, r31
 39c:	f1 04       	cpc	r15, r1
 39e:	01 05       	cpc	r16, r1
 3a0:	11 05       	cpc	r17, r1
 3a2:	01 f0       	breq	.+0      	; 0x3a4 <_Z4tonehjm+0x26a>
 3a4:	00 f0       	brcs	.+0      	; 0x3a6 <_Z4tonehjm+0x26c>
 3a6:	62 e1       	ldi	r22, 0x12	; 18
 3a8:	7a e7       	ldi	r23, 0x7A	; 122
 3aa:	80 e0       	ldi	r24, 0x00	; 0
 3ac:	90 e0       	ldi	r25, 0x00	; 0
 3ae:	a4 01       	movw	r20, r8
 3b0:	93 01       	movw	r18, r6
 3b2:	0e 94 00 00 	call	0	; 0x0 <_Z12disableTimerh>
 3b6:	79 01       	movw	r14, r18
 3b8:	8a 01       	movw	r16, r20
 3ba:	08 94       	sec
 3bc:	e1 08       	sbc	r14, r1
 3be:	f1 08       	sbc	r15, r1
 3c0:	01 09       	sbc	r16, r1
 3c2:	11 09       	sbc	r17, r1
 3c4:	55 20       	and	r5, r5
 3c6:	01 f0       	breq	.+0      	; 0x3c8 <_Z4tonehjm+0x28e>
 3c8:	86 e0       	ldi	r24, 0x06	; 6
 3ca:	00 c0       	rjmp	.+0      	; 0x3cc <_Z4tonehjm+0x292>
 3cc:	84 e0       	ldi	r24, 0x04	; 4
 3ce:	2f ef       	ldi	r18, 0xFF	; 255
 3d0:	e2 16       	cp	r14, r18
 3d2:	f1 04       	cpc	r15, r1
 3d4:	01 05       	cpc	r16, r1
 3d6:	11 05       	cpc	r17, r1
 3d8:	01 f0       	breq	.+0      	; 0x3da <_Z4tonehjm+0x2a0>
 3da:	00 f0       	brcs	.+0      	; 0x3dc <_Z4tonehjm+0x2a2>
 3dc:	86 01       	movw	r16, r12
 3de:	75 01       	movw	r14, r10
 3e0:	9a e0       	ldi	r25, 0x0A	; 10
 3e2:	16 95       	lsr	r17
 3e4:	07 95       	ror	r16
 3e6:	f7 94       	ror	r15
 3e8:	e7 94       	ror	r14
 3ea:	9a 95       	dec	r25
 3ec:	01 f4       	brne	.+0      	; 0x3ee <_Z4tonehjm+0x2b4>
 3ee:	08 94       	sec
 3f0:	e1 08       	sbc	r14, r1
 3f2:	f1 08       	sbc	r15, r1
 3f4:	01 09       	sbc	r16, r1
 3f6:	11 09       	sbc	r17, r1
 3f8:	55 20       	and	r5, r5
 3fa:	01 f0       	breq	.+0      	; 0x3fc <_Z4tonehjm+0x2c2>
 3fc:	87 e0       	ldi	r24, 0x07	; 7
 3fe:	00 c0       	rjmp	.+0      	; 0x400 <_Z4tonehjm+0x2c6>
 400:	85 e0       	ldi	r24, 0x05	; 5
 402:	00 c0       	rjmp	.+0      	; 0x404 <_Z4tonehjm+0x2ca>
 404:	81 e0       	ldi	r24, 0x01	; 1
 406:	55 20       	and	r5, r5
 408:	01 f4       	brne	.+0      	; 0x40a <_Z4tonehjm+0x2d0>
 40a:	85 bd       	out	0x25, r24	; 37
 40c:	00 c0       	rjmp	.+0      	; 0x40e <_Z4tonehjm+0x2d4>
 40e:	82 e0       	ldi	r24, 0x02	; 2
 410:	80 93 b1 00 	sts	0x00B1, r24
 414:	00 c0       	rjmp	.+0      	; 0x416 <_Z4tonehjm+0x2dc>
 416:	51 01       	movw	r10, r2
 418:	cc 24       	eor	r12, r12
 41a:	dd 24       	eor	r13, r13
 41c:	60 e0       	ldi	r22, 0x00	; 0
 41e:	72 e1       	ldi	r23, 0x12	; 18
 420:	8a e7       	ldi	r24, 0x7A	; 122
 422:	90 e0       	ldi	r25, 0x00	; 0
 424:	a6 01       	movw	r20, r12
 426:	95 01       	movw	r18, r10
 428:	0e 94 00 00 	call	0	; 0x0 <_Z12disableTimerh>
 42c:	79 01       	movw	r14, r18
 42e:	8a 01       	movw	r16, r20
 430:	08 94       	sec
 432:	e1 08       	sbc	r14, r1
 434:	f1 08       	sbc	r15, r1
 436:	01 09       	sbc	r16, r1
 438:	11 09       	sbc	r17, r1
 43a:	80 e0       	ldi	r24, 0x00	; 0
 43c:	e8 16       	cp	r14, r24
 43e:	80 e0       	ldi	r24, 0x00	; 0
 440:	f8 06       	cpc	r15, r24
 442:	81 e0       	ldi	r24, 0x01	; 1
 444:	08 07       	cpc	r16, r24
 446:	80 e0       	ldi	r24, 0x00	; 0
 448:	18 07       	cpc	r17, r24
 44a:	00 f4       	brcc	.+0      	; 0x44c <_Z4tonehjm+0x312>
 44c:	91 e0       	ldi	r25, 0x01	; 1
 44e:	00 c0       	rjmp	.+0      	; 0x450 <_Z4tonehjm+0x316>
 450:	68 e4       	ldi	r22, 0x48	; 72
 452:	78 ee       	ldi	r23, 0xE8	; 232
 454:	81 e0       	ldi	r24, 0x01	; 1
 456:	90 e0       	ldi	r25, 0x00	; 0
 458:	a6 01       	movw	r20, r12
 45a:	95 01       	movw	r18, r10
 45c:	0e 94 00 00 	call	0	; 0x0 <_Z12disableTimerh>
 460:	79 01       	movw	r14, r18
 462:	8a 01       	movw	r16, r20
 464:	08 94       	sec
 466:	e1 08       	sbc	r14, r1
 468:	f1 08       	sbc	r15, r1
 46a:	01 09       	sbc	r16, r1
 46c:	11 09       	sbc	r17, r1
 46e:	93 e0       	ldi	r25, 0x03	; 3
 470:	a1 e0       	ldi	r26, 0x01	; 1
 472:	5a 16       	cp	r5, r26
 474:	01 f4       	brne	.+0      	; 0x476 <_Z4tonehjm+0x33c>
 476:	80 91 81 00 	lds	r24, 0x0081
 47a:	88 7f       	andi	r24, 0xF8	; 248
 47c:	98 2b       	or	r25, r24
 47e:	90 93 81 00 	sts	0x0081, r25
 482:	89 81       	ldd	r24, Y+1	; 0x01
 484:	9a 81       	ldd	r25, Y+2	; 0x02
 486:	ab 81       	ldd	r26, Y+3	; 0x03
 488:	bc 81       	ldd	r27, Y+4	; 0x04
 48a:	00 97       	sbiw	r24, 0x00	; 0
 48c:	a1 05       	cpc	r26, r1
 48e:	b1 05       	cpc	r27, r1
 490:	01 f4       	brne	.+0      	; 0x492 <_Z4tonehjm+0x358>
 492:	8f ef       	ldi	r24, 0xFF	; 255
 494:	9f ef       	ldi	r25, 0xFF	; 255
 496:	af ef       	ldi	r26, 0xFF	; 255
 498:	bf ef       	ldi	r27, 0xFF	; 255
 49a:	00 c0       	rjmp	.+0      	; 0x49c <_Z4tonehjm+0x362>
 49c:	22 0c       	add	r2, r2
 49e:	33 1c       	adc	r3, r3
 4a0:	b1 01       	movw	r22, r2
 4a2:	80 e0       	ldi	r24, 0x00	; 0
 4a4:	90 e0       	ldi	r25, 0x00	; 0
 4a6:	29 81       	ldd	r18, Y+1	; 0x01
 4a8:	3a 81       	ldd	r19, Y+2	; 0x02
 4aa:	4b 81       	ldd	r20, Y+3	; 0x03
 4ac:	5c 81       	ldd	r21, Y+4	; 0x04
 4ae:	0e 94 00 00 	call	0	; 0x0 <_Z12disableTimerh>
 4b2:	28 ee       	ldi	r18, 0xE8	; 232
 4b4:	33 e0       	ldi	r19, 0x03	; 3
 4b6:	40 e0       	ldi	r20, 0x00	; 0
 4b8:	50 e0       	ldi	r21, 0x00	; 0
 4ba:	0e 94 00 00 	call	0	; 0x0 <_Z12disableTimerh>
 4be:	c9 01       	movw	r24, r18
 4c0:	da 01       	movw	r26, r20
 4c2:	e1 e0       	ldi	r30, 0x01	; 1
 4c4:	5e 16       	cp	r5, r30
 4c6:	01 f0       	breq	.+0      	; 0x4c8 <_Z4tonehjm+0x38e>
 4c8:	f2 e0       	ldi	r31, 0x02	; 2
 4ca:	5f 16       	cp	r5, r31
 4cc:	01 f0       	breq	.+0      	; 0x4ce <_Z4tonehjm+0x394>
 4ce:	55 20       	and	r5, r5
 4d0:	01 f4       	brne	.+0      	; 0x4d2 <_Z4tonehjm+0x398>
 4d2:	e7 bc       	out	0x27, r14	; 39
 4d4:	80 93 00 00 	sts	0x0000, r24
 4d8:	90 93 00 00 	sts	0x0000, r25
 4dc:	a0 93 00 00 	sts	0x0000, r26
 4e0:	b0 93 00 00 	sts	0x0000, r27
 4e4:	80 91 6e 00 	lds	r24, 0x006E
 4e8:	82 60       	ori	r24, 0x02	; 2
 4ea:	80 93 6e 00 	sts	0x006E, r24
 4ee:	00 c0       	rjmp	.+0      	; 0x4f0 <_Z4tonehjm+0x3b6>
 4f0:	f0 92 89 00 	sts	0x0089, r15
 4f4:	e0 92 88 00 	sts	0x0088, r14
 4f8:	80 93 00 00 	sts	0x0000, r24
 4fc:	90 93 00 00 	sts	0x0000, r25
 500:	a0 93 00 00 	sts	0x0000, r26
 504:	b0 93 00 00 	sts	0x0000, r27
 508:	80 91 6f 00 	lds	r24, 0x006F
 50c:	82 60       	ori	r24, 0x02	; 2
 50e:	80 93 6f 00 	sts	0x006F, r24
 512:	00 c0       	rjmp	.+0      	; 0x514 <_Z4tonehjm+0x3da>
 514:	e0 92 b3 00 	sts	0x00B3, r14
 518:	80 93 00 00 	sts	0x0000, r24
 51c:	90 93 00 00 	sts	0x0000, r25
 520:	a0 93 00 00 	sts	0x0000, r26
 524:	b0 93 00 00 	sts	0x0000, r27
 528:	80 91 70 00 	lds	r24, 0x0070
 52c:	82 60       	ori	r24, 0x02	; 2
 52e:	80 93 70 00 	sts	0x0070, r24
 532:	00 c0       	rjmp	.+0      	; 0x534 <_Z4tonehjm+0x3fa>
 534:	84 e0       	ldi	r24, 0x04	; 4
 536:	00 c0       	rjmp	.+0      	; 0x538 <_Z4tonehjm+0x3fe>
 538:	0f 90       	pop	r0
 53a:	0f 90       	pop	r0
 53c:	0f 90       	pop	r0
 53e:	0f 90       	pop	r0
 540:	cf 91       	pop	r28
 542:	df 91       	pop	r29
 544:	1f 91       	pop	r17
 546:	0f 91       	pop	r16
 548:	ff 90       	pop	r15
 54a:	ef 90       	pop	r14
 54c:	df 90       	pop	r13
 54e:	cf 90       	pop	r12
 550:	bf 90       	pop	r11
 552:	af 90       	pop	r10
 554:	9f 90       	pop	r9
 556:	8f 90       	pop	r8
 558:	7f 90       	pop	r7
 55a:	6f 90       	pop	r6
 55c:	5f 90       	pop	r5
 55e:	3f 90       	pop	r3
 560:	2f 90       	pop	r2
 562:	08 95       	ret

WInterrupts.o:     file format elf32-avr

Sections:
Idx Name          Size      VMA       LMA       File off  Algn
  0 .text         00000120  00000000  00000000  00000034  2**0
                  CONTENTS, ALLOC, LOAD, RELOC, READONLY, CODE
  1 .data         00000000  00000000  00000000  00000154  2**0
                  CONTENTS, ALLOC, LOAD, DATA
  2 .bss          00000004  00000000  00000000  00000154  2**0
                  ALLOC

Disassembly of section .text:

00000000 <attachInterrupt>:
   0:	82 30       	cpi	r24, 0x02	; 2
   2:	00 f4       	brcc	.+0      	; 0x4 <attachInterrupt+0x4>
   4:	e8 2f       	mov	r30, r24
   6:	f0 e0       	ldi	r31, 0x00	; 0
   8:	ee 0f       	add	r30, r30
   a:	ff 1f       	adc	r31, r31
   c:	e0 50       	subi	r30, 0x00	; 0
   e:	f0 40       	sbci	r31, 0x00	; 0
  10:	71 83       	std	Z+1, r23	; 0x01
  12:	60 83       	st	Z, r22
  14:	88 23       	and	r24, r24
  16:	01 f0       	breq	.+0      	; 0x18 <attachInterrupt+0x18>
  18:	81 30       	cpi	r24, 0x01	; 1
  1a:	01 f4       	brne	.+0      	; 0x1c <attachInterrupt+0x1c>
  1c:	00 c0       	rjmp	.+0      	; 0x1e <attachInterrupt+0x1e>
  1e:	80 91 69 00 	lds	r24, 0x0069
  22:	8c 7f       	andi	r24, 0xFC	; 252
  24:	84 2b       	or	r24, r20
  26:	80 93 69 00 	sts	0x0069, r24
  2a:	e8 9a       	sbi	0x1d, 0	; 29
  2c:	08 95       	ret
  2e:	80 91 69 00 	lds	r24, 0x0069
  32:	44 0f       	add	r20, r20
  34:	55 1f       	adc	r21, r21
  36:	44 0f       	add	r20, r20
  38:	55 1f       	adc	r21, r21
  3a:	83 7f       	andi	r24, 0xF3	; 243
  3c:	84 2b       	or	r24, r20
  3e:	80 93 69 00 	sts	0x0069, r24
  42:	e9 9a       	sbi	0x1d, 1	; 29
  44:	08 95       	ret

00000046 <detachInterrupt>:
  46:	82 30       	cpi	r24, 0x02	; 2
  48:	00 f4       	brcc	.+0      	; 0x4a <detachInterrupt+0x4>
  4a:	88 23       	and	r24, r24
  4c:	01 f0       	breq	.+0      	; 0x4e <detachInterrupt+0x8>
  4e:	81 30       	cpi	r24, 0x01	; 1
  50:	01 f4       	brne	.+0      	; 0x52 <detachInterrupt+0xc>
  52:	00 c0       	rjmp	.+0      	; 0x54 <detachInterrupt+0xe>
  54:	e8 98       	cbi	0x1d, 0	; 29
  56:	00 c0       	rjmp	.+0      	; 0x58 <detachInterrupt+0x12>
  58:	e9 98       	cbi	0x1d, 1	; 29
  5a:	e8 2f       	mov	r30, r24
  5c:	f0 e0       	ldi	r31, 0x00	; 0
  5e:	ee 0f       	add	r30, r30
  60:	ff 1f       	adc	r31, r31
  62:	e0 50       	subi	r30, 0x00	; 0
  64:	f0 40       	sbci	r31, 0x00	; 0
  66:	11 82       	std	Z+1, r1	; 0x01
  68:	10 82       	st	Z, r1
  6a:	08 95       	ret

0000006c <__vector_1>:
  6c:	1f 92       	push	r1
  6e:	0f 92       	push	r0
  70:	0f b6       	in	r0, 0x3f	; 63
  72:	0f 92       	push	r0
  74:	11 24       	eor	r1, r1
  76:	2f 93       	push	r18
  78:	3f 93       	push	r19
  7a:	4f 93       	push	r20
  7c:	5f 93       	push	r21
  7e:	6f 93       	push	r22
  80:	7f 93       	push	r23
  82:	8f 93       	push	r24
  84:	9f 93       	push	r25
  86:	af 93       	push	r26
  88:	bf 93       	push	r27
  8a:	ef 93       	push	r30
  8c:	ff 93       	push	r31
  8e:	80 91 00 00 	lds	r24, 0x0000
  92:	90 91 00 00 	lds	r25, 0x0000
  96:	89 2b       	or	r24, r25
  98:	01 f0       	breq	.+0      	; 0x9a <__vector_1+0x2e>
  9a:	e0 91 00 00 	lds	r30, 0x0000
  9e:	f0 91 00 00 	lds	r31, 0x0000
  a2:	09 95       	icall
  a4:	ff 91       	pop	r31
  a6:	ef 91       	pop	r30
  a8:	bf 91       	pop	r27
  aa:	af 91       	pop	r26
  ac:	9f 91       	pop	r25
  ae:	8f 91       	pop	r24
  b0:	7f 91       	pop	r23
  b2:	6f 91       	pop	r22
  b4:	5f 91       	pop	r21
  b6:	4f 91       	pop	r20
  b8:	3f 91       	pop	r19
  ba:	2f 91       	pop	r18
  bc:	0f 90       	pop	r0
  be:	0f be       	out	0x3f, r0	; 63
  c0:	0f 90       	pop	r0
  c2:	1f 90       	pop	r1
  c4:	18 95       	reti

000000c6 <__vector_2>:
  c6:	1f 92       	push	r1
  c8:	0f 92       	push	r0
  ca:	0f b6       	in	r0, 0x3f	; 63
  cc:	0f 92       	push	r0
  ce:	11 24       	eor	r1, r1
  d0:	2f 93       	push	r18
  d2:	3f 93       	push	r19
  d4:	4f 93       	push	r20
  d6:	5f 93       	push	r21
  d8:	6f 93       	push	r22
  da:	7f 93       	push	r23
  dc:	8f 93       	push	r24
  de:	9f 93       	push	r25
  e0:	af 93       	push	r26
  e2:	bf 93       	push	r27
  e4:	ef 93       	push	r30
  e6:	ff 93       	push	r31
  e8:	80 91 00 00 	lds	r24, 0x0000
  ec:	90 91 00 00 	lds	r25, 0x0000
  f0:	89 2b       	or	r24, r25
  f2:	01 f0       	breq	.+0      	; 0xf4 <__vector_2+0x2e>
  f4:	e0 91 00 00 	lds	r30, 0x0000
  f8:	f0 91 00 00 	lds	r31, 0x0000
  fc:	09 95       	icall
  fe:	ff 91       	pop	r31
 100:	ef 91       	pop	r30
 102:	bf 91       	pop	r27
 104:	af 91       	pop	r26
 106:	9f 91       	pop	r25
 108:	8f 91       	pop	r24
 10a:	7f 91       	pop	r23
 10c:	6f 91       	pop	r22
 10e:	5f 91       	pop	r21
 110:	4f 91       	pop	r20
 112:	3f 91       	pop	r19
 114:	2f 91       	pop	r18
 116:	0f 90       	pop	r0
 118:	0f be       	out	0x3f, r0	; 63
 11a:	0f 90       	pop	r0
 11c:	1f 90       	pop	r1
 11e:	18 95       	reti

WMath.o:     file format elf32-avr

Sections:
Idx Name          Size      VMA       LMA       File off  Algn
  0 .text         00000132  00000000  00000000  00000034  2**0
                  CONTENTS, ALLOC, LOAD, RELOC, READONLY, CODE
  1 .data         00000000  00000000  00000000  00000166  2**0
                  CONTENTS, ALLOC, LOAD, DATA
  2 .bss          00000000  00000000  00000000  00000166  2**0
                  ALLOC

Disassembly of section .text:

00000000 <_Z3maplllll>:
   0:	2f 92       	push	r2
   2:	3f 92       	push	r3
   4:	4f 92       	push	r4
   6:	5f 92       	push	r5
   8:	6f 92       	push	r6
   a:	7f 92       	push	r7
   c:	8f 92       	push	r8
   e:	9f 92       	push	r9
  10:	af 92       	push	r10
  12:	bf 92       	push	r11
  14:	cf 92       	push	r12
  16:	df 92       	push	r13
  18:	ef 92       	push	r14
  1a:	ff 92       	push	r15
  1c:	0f 93       	push	r16
  1e:	1f 93       	push	r17
  20:	df 93       	push	r29
  22:	cf 93       	push	r28
  24:	cd b7       	in	r28, 0x3d	; 61
  26:	de b7       	in	r29, 0x3e	; 62
  28:	3b 01       	movw	r6, r22
  2a:	4c 01       	movw	r8, r24
  2c:	19 01       	movw	r2, r18
  2e:	2a 01       	movw	r4, r20
  30:	6d 89       	ldd	r22, Y+21	; 0x15
  32:	7e 89       	ldd	r23, Y+22	; 0x16
  34:	8f 89       	ldd	r24, Y+23	; 0x17
  36:	98 8d       	ldd	r25, Y+24	; 0x18
  38:	6a 19       	sub	r22, r10
  3a:	7b 09       	sbc	r23, r11
  3c:	8c 09       	sbc	r24, r12
  3e:	9d 09       	sbc	r25, r13
  40:	62 1a       	sub	r6, r18
  42:	73 0a       	sbc	r7, r19
  44:	84 0a       	sbc	r8, r20
  46:	95 0a       	sbc	r9, r21
  48:	a4 01       	movw	r20, r8
  4a:	93 01       	movw	r18, r6
  4c:	0e 94 00 00 	call	0	; 0x0 <_Z3maplllll>
  50:	e2 18       	sub	r14, r2
  52:	f3 08       	sbc	r15, r3
  54:	04 09       	sbc	r16, r4
  56:	15 09       	sbc	r17, r5
  58:	a8 01       	movw	r20, r16
  5a:	97 01       	movw	r18, r14
  5c:	0e 94 00 00 	call	0	; 0x0 <_Z3maplllll>
  60:	2a 0d       	add	r18, r10
  62:	3b 1d       	adc	r19, r11
  64:	4c 1d       	adc	r20, r12
  66:	5d 1d       	adc	r21, r13
  68:	b9 01       	movw	r22, r18
  6a:	ca 01       	movw	r24, r20
  6c:	cf 91       	pop	r28
  6e:	df 91       	pop	r29
  70:	1f 91       	pop	r17
  72:	0f 91       	pop	r16
  74:	ff 90       	pop	r15
  76:	ef 90       	pop	r14
  78:	df 90       	pop	r13
  7a:	cf 90       	pop	r12
  7c:	bf 90       	pop	r11
  7e:	af 90       	pop	r10
  80:	9f 90       	pop	r9
  82:	8f 90       	pop	r8
  84:	7f 90       	pop	r7
  86:	6f 90       	pop	r6
  88:	5f 90       	pop	r5
  8a:	4f 90       	pop	r4
  8c:	3f 90       	pop	r3
  8e:	2f 90       	pop	r2
  90:	08 95       	ret

00000092 <_Z8makeWordj>:
  92:	08 95       	ret

00000094 <_Z8makeWordhh>:
  94:	70 e0       	ldi	r23, 0x00	; 0
  96:	38 2f       	mov	r19, r24
  98:	20 e0       	ldi	r18, 0x00	; 0
  9a:	62 2b       	or	r22, r18
  9c:	73 2b       	or	r23, r19
  9e:	cb 01       	movw	r24, r22
  a0:	08 95       	ret

000000a2 <_Z6randoml>:
  a2:	ef 92       	push	r14
  a4:	ff 92       	push	r15
  a6:	0f 93       	push	r16
  a8:	1f 93       	push	r17
  aa:	7b 01       	movw	r14, r22
  ac:	8c 01       	movw	r16, r24
  ae:	61 15       	cp	r22, r1
  b0:	71 05       	cpc	r23, r1
  b2:	81 05       	cpc	r24, r1
  b4:	91 05       	cpc	r25, r1
  b6:	01 f4       	brne	.+0      	; 0xb8 <_Z6randoml+0x16>
  b8:	20 e0       	ldi	r18, 0x00	; 0
  ba:	30 e0       	ldi	r19, 0x00	; 0
  bc:	40 e0       	ldi	r20, 0x00	; 0
  be:	50 e0       	ldi	r21, 0x00	; 0
  c0:	00 c0       	rjmp	.+0      	; 0xc2 <_Z6randoml+0x20>
  c2:	0e 94 00 00 	call	0	; 0x0 <_Z3maplllll>
  c6:	a8 01       	movw	r20, r16
  c8:	97 01       	movw	r18, r14
  ca:	0e 94 00 00 	call	0	; 0x0 <_Z3maplllll>
  ce:	ac 01       	movw	r20, r24
  d0:	cb 01       	movw	r24, r22
  d2:	da 01       	movw	r26, r20
  d4:	9c 01       	movw	r18, r24
  d6:	ad 01       	movw	r20, r26
  d8:	b9 01       	movw	r22, r18
  da:	ca 01       	movw	r24, r20
  dc:	1f 91       	pop	r17
  de:	0f 91       	pop	r16
  e0:	ff 90       	pop	r15
  e2:	ef 90       	pop	r14
  e4:	08 95       	ret

000000e6 <_Z6randomll>:
  e6:	ef 92       	push	r14
  e8:	ff 92       	push	r15
  ea:	0f 93       	push	r16
  ec:	1f 93       	push	r17
  ee:	7b 01       	movw	r14, r22
  f0:	8c 01       	movw	r16, r24
  f2:	62 17       	cp	r22, r18
  f4:	73 07       	cpc	r23, r19
  f6:	84 07       	cpc	r24, r20
  f8:	95 07       	cpc	r25, r21
  fa:	04 f4       	brge	.+0      	; 0xfc <_Z6randomll+0x16>
  fc:	26 1b       	sub	r18, r22
  fe:	37 0b       	sbc	r19, r23
 100:	48 0b       	sbc	r20, r24
 102:	59 0b       	sbc	r21, r25
 104:	ca 01       	movw	r24, r20
 106:	b9 01       	movw	r22, r18
 108:	0e 94 00 00 	call	0	; 0x0 <_Z3maplllll>
 10c:	e6 0e       	add	r14, r22
 10e:	f7 1e       	adc	r15, r23
 110:	08 1f       	adc	r16, r24
 112:	19 1f       	adc	r17, r25
 114:	b7 01       	movw	r22, r14
 116:	c8 01       	movw	r24, r16
 118:	1f 91       	pop	r17
 11a:	0f 91       	pop	r16
 11c:	ff 90       	pop	r15
 11e:	ef 90       	pop	r14
 120:	08 95       	ret

00000122 <_Z10randomSeedj>:
 122:	00 97       	sbiw	r24, 0x00	; 0
 124:	01 f0       	breq	.+0      	; 0x126 <_Z10randomSeedj+0x4>
 126:	bc 01       	movw	r22, r24
 128:	80 e0       	ldi	r24, 0x00	; 0
 12a:	90 e0       	ldi	r25, 0x00	; 0
 12c:	0e 94 00 00 	call	0	; 0x0 <_Z3maplllll>
 130:	08 95       	ret

pins_arduino.o:     file format elf32-avr

Sections:
Idx Name          Size      VMA       LMA       File off  Algn
  0 .text         00000000  00000000  00000000  00000034  2**0
                  CONTENTS, ALLOC, LOAD, READONLY, CODE
  1 .data         00000000  00000000  00000000  00000034  2**0
                  CONTENTS, ALLOC, LOAD, DATA
  2 .bss          00000000  00000000  00000000  00000034  2**0
                  ALLOC
  3 .progmem.data 0000005a  00000000  00000000  00000034  2**0
                  CONTENTS, ALLOC, LOAD, READONLY, DATA

wiring.o:     file format elf32-avr

Sections:
Idx Name          Size      VMA       LMA       File off  Algn
  0 .text         00000234  00000000  00000000  00000034  2**0
                  CONTENTS, ALLOC, LOAD, RELOC, READONLY, CODE
  1 .data         00000000  00000000  00000000  00000268  2**0
                  CONTENTS, ALLOC, LOAD, DATA
  2 .bss          00000009  00000000  00000000  00000268  2**0
                  ALLOC

Disassembly of section .text:

00000000 <__vector_16>:
   0:	1f 92       	push	r1
   2:	0f 92       	push	r0
   4:	0f b6       	in	r0, 0x3f	; 63
   6:	0f 92       	push	r0
   8:	11 24       	eor	r1, r1
   a:	2f 93       	push	r18
   c:	3f 93       	push	r19
   e:	8f 93       	push	r24
  10:	9f 93       	push	r25
  12:	af 93       	push	r26
  14:	bf 93       	push	r27
  16:	80 91 00 00 	lds	r24, 0x0000
  1a:	90 91 00 00 	lds	r25, 0x0000
  1e:	a0 91 00 00 	lds	r26, 0x0000
  22:	b0 91 00 00 	lds	r27, 0x0000
  26:	30 91 00 00 	lds	r19, 0x0000
  2a:	01 96       	adiw	r24, 0x01	; 1
  2c:	a1 1d       	adc	r26, r1
  2e:	b1 1d       	adc	r27, r1
  30:	23 2f       	mov	r18, r19
  32:	2d 5f       	subi	r18, 0xFD	; 253
  34:	2d 37       	cpi	r18, 0x7D	; 125
  36:	00 f0       	brcs	.+0      	; 0x38 <__vector_16+0x38>
  38:	2d 57       	subi	r18, 0x7D	; 125
  3a:	01 96       	adiw	r24, 0x01	; 1
  3c:	a1 1d       	adc	r26, r1
  3e:	b1 1d       	adc	r27, r1
  40:	20 93 00 00 	sts	0x0000, r18
  44:	80 93 00 00 	sts	0x0000, r24
  48:	90 93 00 00 	sts	0x0000, r25
  4c:	a0 93 00 00 	sts	0x0000, r26
  50:	b0 93 00 00 	sts	0x0000, r27
  54:	80 91 00 00 	lds	r24, 0x0000
  58:	90 91 00 00 	lds	r25, 0x0000
  5c:	a0 91 00 00 	lds	r26, 0x0000
  60:	b0 91 00 00 	lds	r27, 0x0000
  64:	01 96       	adiw	r24, 0x01	; 1
  66:	a1 1d       	adc	r26, r1
  68:	b1 1d       	adc	r27, r1
  6a:	80 93 00 00 	sts	0x0000, r24
  6e:	90 93 00 00 	sts	0x0000, r25
  72:	a0 93 00 00 	sts	0x0000, r26
  76:	b0 93 00 00 	sts	0x0000, r27
  7a:	bf 91       	pop	r27
  7c:	af 91       	pop	r26
  7e:	9f 91       	pop	r25
  80:	8f 91       	pop	r24
  82:	3f 91       	pop	r19
  84:	2f 91       	pop	r18
  86:	0f 90       	pop	r0
  88:	0f be       	out	0x3f, r0	; 63
  8a:	0f 90       	pop	r0
  8c:	1f 90       	pop	r1
  8e:	18 95       	reti

00000090 <millis>:
  90:	8f b7       	in	r24, 0x3f	; 63
  92:	f8 94       	cli
  94:	20 91 00 00 	lds	r18, 0x0000
  98:	30 91 00 00 	lds	r19, 0x0000
  9c:	40 91 00 00 	lds	r20, 0x0000
  a0:	50 91 00 00 	lds	r21, 0x0000
  a4:	8f bf       	out	0x3f, r24	; 63
  a6:	b9 01       	movw	r22, r18
  a8:	ca 01       	movw	r24, r20
  aa:	08 95       	ret

000000ac <micros>:
  ac:	9f b7       	in	r25, 0x3f	; 63
  ae:	f8 94       	cli
  b0:	20 91 00 00 	lds	r18, 0x0000
  b4:	30 91 00 00 	lds	r19, 0x0000
  b8:	40 91 00 00 	lds	r20, 0x0000
  bc:	50 91 00 00 	lds	r21, 0x0000
  c0:	86 b5       	in	r24, 0x26	; 38
  c2:	a8 9b       	sbis	0x15, 0	; 21
  c4:	00 c0       	rjmp	.+0      	; 0xc6 <micros+0x1a>
  c6:	8f 3f       	cpi	r24, 0xFF	; 255
  c8:	01 f0       	breq	.+0      	; 0xca <micros+0x1e>
  ca:	2f 5f       	subi	r18, 0xFF	; 255
  cc:	3f 4f       	sbci	r19, 0xFF	; 255
  ce:	4f 4f       	sbci	r20, 0xFF	; 255
  d0:	5f 4f       	sbci	r21, 0xFF	; 255
  d2:	9f bf       	out	0x3f, r25	; 63
  d4:	54 2f       	mov	r21, r20
  d6:	43 2f       	mov	r20, r19
  d8:	32 2f       	mov	r19, r18
  da:	22 27       	eor	r18, r18
  dc:	28 0f       	add	r18, r24
  de:	31 1d       	adc	r19, r1
  e0:	41 1d       	adc	r20, r1
  e2:	51 1d       	adc	r21, r1
  e4:	82 e0       	ldi	r24, 0x02	; 2
  e6:	22 0f       	add	r18, r18
  e8:	33 1f       	adc	r19, r19
  ea:	44 1f       	adc	r20, r20
  ec:	55 1f       	adc	r21, r21
  ee:	8a 95       	dec	r24
  f0:	01 f4       	brne	.+0      	; 0xf2 <micros+0x46>
  f2:	b9 01       	movw	r22, r18
  f4:	ca 01       	movw	r24, r20
  f6:	08 95       	ret

000000f8 <delay>:
  f8:	9b 01       	movw	r18, r22
  fa:	ac 01       	movw	r20, r24
  fc:	7f b7       	in	r23, 0x3f	; 63
  fe:	f8 94       	cli
 100:	80 91 00 00 	lds	r24, 0x0000
 104:	90 91 00 00 	lds	r25, 0x0000
 108:	a0 91 00 00 	lds	r26, 0x0000
 10c:	b0 91 00 00 	lds	r27, 0x0000
 110:	66 b5       	in	r22, 0x26	; 38
 112:	a8 9b       	sbis	0x15, 0	; 21
 114:	00 c0       	rjmp	.+0      	; 0x116 <delay+0x1e>
 116:	6f 3f       	cpi	r22, 0xFF	; 255
 118:	01 f0       	breq	.+0      	; 0x11a <delay+0x22>
 11a:	01 96       	adiw	r24, 0x01	; 1
 11c:	a1 1d       	adc	r26, r1
 11e:	b1 1d       	adc	r27, r1
 120:	7f bf       	out	0x3f, r23	; 63
 122:	ba 2f       	mov	r27, r26
 124:	a9 2f       	mov	r26, r25
 126:	98 2f       	mov	r25, r24
 128:	88 27       	eor	r24, r24
 12a:	86 0f       	add	r24, r22
 12c:	91 1d       	adc	r25, r1
 12e:	a1 1d       	adc	r26, r1
 130:	b1 1d       	adc	r27, r1
 132:	62 e0       	ldi	r22, 0x02	; 2
 134:	88 0f       	add	r24, r24
 136:	99 1f       	adc	r25, r25
 138:	aa 1f       	adc	r26, r26
 13a:	bb 1f       	adc	r27, r27
 13c:	6a 95       	dec	r22
 13e:	01 f4       	brne	.+0      	; 0x140 <delay+0x48>
 140:	bc 01       	movw	r22, r24
 142:	00 c0       	rjmp	.+0      	; 0x144 <delay+0x4c>
 144:	ff b7       	in	r31, 0x3f	; 63
 146:	f8 94       	cli
 148:	80 91 00 00 	lds	r24, 0x0000
 14c:	90 91 00 00 	lds	r25, 0x0000
 150:	a0 91 00 00 	lds	r26, 0x0000
 154:	b0 91 00 00 	lds	r27, 0x0000
 158:	e6 b5       	in	r30, 0x26	; 38
 15a:	a8 9b       	sbis	0x15, 0	; 21
 15c:	00 c0       	rjmp	.+0      	; 0x15e <delay+0x66>
 15e:	ef 3f       	cpi	r30, 0xFF	; 255
 160:	01 f0       	breq	.+0      	; 0x162 <delay+0x6a>
 162:	01 96       	adiw	r24, 0x01	; 1
 164:	a1 1d       	adc	r26, r1
 166:	b1 1d       	adc	r27, r1
 168:	ff bf       	out	0x3f, r31	; 63
 16a:	ba 2f       	mov	r27, r26
 16c:	a9 2f       	mov	r26, r25
 16e:	98 2f       	mov	r25, r24
 170:	88 27       	eor	r24, r24
 172:	8e 0f       	add	r24, r30
 174:	91 1d       	adc	r25, r1
 176:	a1 1d       	adc	r26, r1
 178:	b1 1d       	adc	r27, r1
 17a:	e2 e0       	ldi	r30, 0x02	; 2
 17c:	88 0f       	add	r24, r24
 17e:	99 1f       	adc	r25, r25
 180:	aa 1f       	adc	r26, r26
 182:	bb 1f       	adc	r27, r27
 184:	ea 95       	dec	r30
 186:	01 f4       	brne	.+0      	; 0x188 <delay+0x90>
 188:	86 1b       	sub	r24, r22
 18a:	97 0b       	sbc	r25, r23
 18c:	88 5e       	subi	r24, 0xE8	; 232
 18e:	93 40       	sbci	r25, 0x03	; 3
 190:	00 f0       	brcs	.+0      	; 0x192 <delay+0x9a>
 192:	21 50       	subi	r18, 0x01	; 1
 194:	30 40       	sbci	r19, 0x00	; 0
 196:	40 40       	sbci	r20, 0x00	; 0
 198:	50 40       	sbci	r21, 0x00	; 0
 19a:	68 51       	subi	r22, 0x18	; 24
 19c:	7c 4f       	sbci	r23, 0xFC	; 252
 19e:	21 15       	cp	r18, r1
 1a0:	31 05       	cpc	r19, r1
 1a2:	41 05       	cpc	r20, r1
 1a4:	51 05       	cpc	r21, r1
 1a6:	01 f4       	brne	.+0      	; 0x1a8 <delay+0xb0>
 1a8:	08 95       	ret

000001aa <delayMicroseconds>:
 1aa:	01 97       	sbiw	r24, 0x01	; 1
 1ac:	01 f0       	breq	.+0      	; 0x1ae <delayMicroseconds+0x4>
 1ae:	88 0f       	add	r24, r24
 1b0:	99 1f       	adc	r25, r25
 1b2:	88 0f       	add	r24, r24
 1b4:	99 1f       	adc	r25, r25
 1b6:	02 97       	sbiw	r24, 0x02	; 2
 1b8:	01 97       	sbiw	r24, 0x01	; 1
 1ba:	01 f4       	brne	.+0      	; 0x1bc <delayMicroseconds+0x12>
 1bc:	08 95       	ret

000001be <init>:
 1be:	78 94       	sei
 1c0:	84 b5       	in	r24, 0x24	; 36
 1c2:	82 60       	ori	r24, 0x02	; 2
 1c4:	84 bd       	out	0x24, r24	; 36
 1c6:	84 b5       	in	r24, 0x24	; 36
 1c8:	81 60       	ori	r24, 0x01	; 1
 1ca:	84 bd       	out	0x24, r24	; 36
 1cc:	85 b5       	in	r24, 0x25	; 37
 1ce:	82 60       	ori	r24, 0x02	; 2
 1d0:	85 bd       	out	0x25, r24	; 37
 1d2:	85 b5       	in	r24, 0x25	; 37
 1d4:	81 60       	ori	r24, 0x01	; 1
 1d6:	85 bd       	out	0x25, r24	; 37
 1d8:	ee e6       	ldi	r30, 0x6E	; 110
 1da:	f0 e0       	ldi	r31, 0x00	; 0
 1dc:	80 81       	ld	r24, Z
 1de:	81 60       	ori	r24, 0x01	; 1
 1e0:	80 83       	st	Z, r24
 1e2:	e1 e8       	ldi	r30, 0x81	; 129
 1e4:	f0 e0       	ldi	r31, 0x00	; 0
 1e6:	10 82       	st	Z, r1
 1e8:	80 81       	ld	r24, Z
 1ea:	82 60       	ori	r24, 0x02	; 2
 1ec:	80 83       	st	Z, r24
 1ee:	80 81       	ld	r24, Z
 1f0:	81 60       	ori	r24, 0x01	; 1
 1f2:	80 83       	st	Z, r24
 1f4:	e0 e8       	ldi	r30, 0x80	; 128
 1f6:	f0 e0       	ldi	r31, 0x00	; 0
 1f8:	80 81       	ld	r24, Z
 1fa:	81 60       	ori	r24, 0x01	; 1
 1fc:	80 83       	st	Z, r24
 1fe:	e1 eb       	ldi	r30, 0xB1	; 177
 200:	f0 e0       	ldi	r31, 0x00	; 0
 202:	80 81       	ld	r24, Z
 204:	84 60       	ori	r24, 0x04	; 4
 206:	80 83       	st	Z, r24
 208:	e0 eb       	ldi	r30, 0xB0	; 176
 20a:	f0 e0       	ldi	r31, 0x00	; 0
 20c:	80 81       	ld	r24, Z
 20e:	81 60       	ori	r24, 0x01	; 1
 210:	80 83       	st	Z, r24
 212:	ea e7       	ldi	r30, 0x7A	; 122
 214:	f0 e0       	ldi	r31, 0x00	; 0
 216:	80 81       	ld	r24, Z
 218:	84 60       	ori	r24, 0x04	; 4
 21a:	80 83       	st	Z, r24
 21c:	80 81       	ld	r24, Z
 21e:	82 60       	ori	r24, 0x02	; 2
 220:	80 83       	st	Z, r24
 222:	80 81       	ld	r24, Z
 224:	81 60       	ori	r24, 0x01	; 1
 226:	80 83       	st	Z, r24
 228:	80 81       	ld	r24, Z
 22a:	80 68       	ori	r24, 0x80	; 128
 22c:	80 83       	st	Z, r24
 22e:	10 92 c1 00 	sts	0x00C1, r1
 232:	08 95       	ret

wiring_analog.o:     file format elf32-avr

Sections:
Idx Name          Size      VMA       LMA       File off  Algn
  0 .text         000000fc  00000000  00000000  00000034  2**0
                  CONTENTS, ALLOC, LOAD, RELOC, READONLY, CODE
  1 .data         00000001  00000000  00000000  00000130  2**0
                  CONTENTS, ALLOC, LOAD, DATA
  2 .bss          00000000  00000000  00000000  00000131  2**0
                  ALLOC

Disassembly of section .text:

00000000 <analogReference>:
   0:	80 93 00 00 	sts	0x0000, r24
   4:	08 95       	ret

00000006 <analogRead>:
   6:	98 2f       	mov	r25, r24
   8:	8e 30       	cpi	r24, 0x0E	; 14
   a:	00 f0       	brcs	.+0      	; 0xc <analogRead+0x6>
   c:	9e 50       	subi	r25, 0x0E	; 14
   e:	97 70       	andi	r25, 0x07	; 7
  10:	80 91 00 00 	lds	r24, 0x0000
  14:	82 95       	swap	r24
  16:	88 0f       	add	r24, r24
  18:	88 0f       	add	r24, r24
  1a:	80 7c       	andi	r24, 0xC0	; 192
  1c:	89 2b       	or	r24, r25
  1e:	80 93 7c 00 	sts	0x007C, r24
  22:	80 91 7a 00 	lds	r24, 0x007A
  26:	80 64       	ori	r24, 0x40	; 64
  28:	80 93 7a 00 	sts	0x007A, r24
  2c:	80 91 7a 00 	lds	r24, 0x007A
  30:	86 fd       	sbrc	r24, 6
  32:	00 c0       	rjmp	.+0      	; 0x34 <analogRead+0x2e>
  34:	20 91 78 00 	lds	r18, 0x0078
  38:	40 91 79 00 	lds	r20, 0x0079
  3c:	94 2f       	mov	r25, r20
  3e:	80 e0       	ldi	r24, 0x00	; 0
  40:	30 e0       	ldi	r19, 0x00	; 0
  42:	28 2b       	or	r18, r24
  44:	39 2b       	or	r19, r25
  46:	c9 01       	movw	r24, r18
  48:	08 95       	ret

0000004a <analogWrite>:
  4a:	1f 93       	push	r17
  4c:	cf 93       	push	r28
  4e:	df 93       	push	r29
  50:	18 2f       	mov	r17, r24
  52:	eb 01       	movw	r28, r22
  54:	61 e0       	ldi	r22, 0x01	; 1
  56:	0e 94 00 00 	call	0	; 0x0 <analogReference>
  5a:	e1 2f       	mov	r30, r17
  5c:	f0 e0       	ldi	r31, 0x00	; 0
  5e:	e0 50       	subi	r30, 0x00	; 0
  60:	f0 40       	sbci	r31, 0x00	; 0
  62:	84 91       	lpm	r24, Z+
  64:	83 30       	cpi	r24, 0x03	; 3
  66:	01 f4       	brne	.+0      	; 0x68 <analogWrite+0x1e>
  68:	80 91 80 00 	lds	r24, 0x0080
  6c:	80 68       	ori	r24, 0x80	; 128
  6e:	80 93 80 00 	sts	0x0080, r24
  72:	d0 93 89 00 	sts	0x0089, r29
  76:	c0 93 88 00 	sts	0x0088, r28
  7a:	00 c0       	rjmp	.+0      	; 0x7c <analogWrite+0x32>
  7c:	84 30       	cpi	r24, 0x04	; 4
  7e:	01 f4       	brne	.+0      	; 0x80 <analogWrite+0x36>
  80:	80 91 80 00 	lds	r24, 0x0080
  84:	80 62       	ori	r24, 0x20	; 32
  86:	80 93 80 00 	sts	0x0080, r24
  8a:	d0 93 8b 00 	sts	0x008B, r29
  8e:	c0 93 8a 00 	sts	0x008A, r28
  92:	00 c0       	rjmp	.+0      	; 0x94 <analogWrite+0x4a>
  94:	81 30       	cpi	r24, 0x01	; 1
  96:	01 f4       	brne	.+0      	; 0x98 <analogWrite+0x4e>
  98:	20 97       	sbiw	r28, 0x00	; 0
  9a:	01 f0       	breq	.+0      	; 0x9c <analogWrite+0x52>
  9c:	84 b5       	in	r24, 0x24	; 36
  9e:	80 68       	ori	r24, 0x80	; 128
  a0:	84 bd       	out	0x24, r24	; 36
  a2:	c7 bd       	out	0x27, r28	; 39
  a4:	00 c0       	rjmp	.+0      	; 0xa6 <analogWrite+0x5c>
  a6:	82 30       	cpi	r24, 0x02	; 2
  a8:	01 f4       	brne	.+0      	; 0xaa <analogWrite+0x60>
  aa:	20 97       	sbiw	r28, 0x00	; 0
  ac:	01 f0       	breq	.+0      	; 0xae <analogWrite+0x64>
  ae:	84 b5       	in	r24, 0x24	; 36
  b0:	80 62       	ori	r24, 0x20	; 32
  b2:	84 bd       	out	0x24, r24	; 36
  b4:	c8 bd       	out	0x28, r28	; 40
  b6:	00 c0       	rjmp	.+0      	; 0xb8 <analogWrite+0x6e>
  b8:	86 30       	cpi	r24, 0x06	; 6
  ba:	01 f4       	brne	.+0      	; 0xbc <analogWrite+0x72>
  bc:	80 91 b0 00 	lds	r24, 0x00B0
  c0:	80 68       	ori	r24, 0x80	; 128
  c2:	80 93 b0 00 	sts	0x00B0, r24
  c6:	c0 93 b3 00 	sts	0x00B3, r28
  ca:	00 c0       	rjmp	.+0      	; 0xcc <analogWrite+0x82>
  cc:	87 30       	cpi	r24, 0x07	; 7
  ce:	01 f4       	brne	.+0      	; 0xd0 <analogWrite+0x86>
  d0:	80 91 b0 00 	lds	r24, 0x00B0
  d4:	80 62       	ori	r24, 0x20	; 32
  d6:	80 93 b0 00 	sts	0x00B0, r24
  da:	c0 93 b4 00 	sts	0x00B4, r28
  de:	00 c0       	rjmp	.+0      	; 0xe0 <analogWrite+0x96>
  e0:	c0 38       	cpi	r28, 0x80	; 128
  e2:	d1 05       	cpc	r29, r1
  e4:	04 f4       	brge	.+0      	; 0xe6 <analogWrite+0x9c>
  e6:	81 2f       	mov	r24, r17
  e8:	60 e0       	ldi	r22, 0x00	; 0
  ea:	00 c0       	rjmp	.+0      	; 0xec <analogWrite+0xa2>
  ec:	81 2f       	mov	r24, r17
  ee:	61 e0       	ldi	r22, 0x01	; 1
  f0:	0e 94 00 00 	call	0	; 0x0 <analogReference>
  f4:	df 91       	pop	r29
  f6:	cf 91       	pop	r28
  f8:	1f 91       	pop	r17
  fa:	08 95       	ret

wiring_digital.o:     file format elf32-avr

Sections:
Idx Name          Size      VMA       LMA       File off  Algn
  0 .text         00000192  00000000  00000000  00000034  2**0
                  CONTENTS, ALLOC, LOAD, RELOC, READONLY, CODE
  1 .data         00000000  00000000  00000000  000001c6  2**0
                  CONTENTS, ALLOC, LOAD, DATA
  2 .bss          00000000  00000000  00000000  000001c6  2**0
                  ALLOC

Disassembly of section .text:

00000000 <pinMode>:
   0:	48 2f       	mov	r20, r24
   2:	50 e0       	ldi	r21, 0x00	; 0
   4:	ca 01       	movw	r24, r20
   6:	80 50       	subi	r24, 0x00	; 0
   8:	90 40       	sbci	r25, 0x00	; 0
   a:	fc 01       	movw	r30, r24
   c:	24 91       	lpm	r18, Z+
   e:	40 50       	subi	r20, 0x00	; 0
  10:	50 40       	sbci	r21, 0x00	; 0
  12:	fa 01       	movw	r30, r20
  14:	84 91       	lpm	r24, Z+
  16:	88 23       	and	r24, r24
  18:	01 f0       	breq	.+0      	; 0x1a <pinMode+0x1a>
  1a:	e8 2f       	mov	r30, r24
  1c:	f0 e0       	ldi	r31, 0x00	; 0
  1e:	ee 0f       	add	r30, r30
  20:	ff 1f       	adc	r31, r31
  22:	e0 50       	subi	r30, 0x00	; 0
  24:	f0 40       	sbci	r31, 0x00	; 0
  26:	a5 91       	lpm	r26, Z+
  28:	b4 91       	lpm	r27, Z+
  2a:	66 23       	and	r22, r22
  2c:	01 f4       	brne	.+0      	; 0x2e <pinMode+0x2e>
  2e:	9f b7       	in	r25, 0x3f	; 63
  30:	f8 94       	cli
  32:	8c 91       	ld	r24, X
  34:	20 95       	com	r18
  36:	82 23       	and	r24, r18
  38:	8c 93       	st	X, r24
  3a:	9f bf       	out	0x3f, r25	; 63
  3c:	08 95       	ret
  3e:	9f b7       	in	r25, 0x3f	; 63
  40:	f8 94       	cli
  42:	8c 91       	ld	r24, X
  44:	82 2b       	or	r24, r18
  46:	8c 93       	st	X, r24
  48:	9f bf       	out	0x3f, r25	; 63
  4a:	08 95       	ret

0000004c <digitalWrite>:
  4c:	48 2f       	mov	r20, r24
  4e:	50 e0       	ldi	r21, 0x00	; 0
  50:	ca 01       	movw	r24, r20
  52:	80 50       	subi	r24, 0x00	; 0
  54:	90 40       	sbci	r25, 0x00	; 0
  56:	fc 01       	movw	r30, r24
  58:	24 91       	lpm	r18, Z+
  5a:	ca 01       	movw	r24, r20
  5c:	80 50       	subi	r24, 0x00	; 0
  5e:	90 40       	sbci	r25, 0x00	; 0
  60:	fc 01       	movw	r30, r24
  62:	34 91       	lpm	r19, Z+
  64:	40 50       	subi	r20, 0x00	; 0
  66:	50 40       	sbci	r21, 0x00	; 0
  68:	fa 01       	movw	r30, r20
  6a:	94 91       	lpm	r25, Z+
  6c:	99 23       	and	r25, r25
  6e:	01 f4       	brne	.+0      	; 0x70 <digitalWrite+0x24>
  70:	00 c0       	rjmp	.+0      	; 0x72 <digitalWrite+0x26>
  72:	22 23       	and	r18, r18
  74:	01 f0       	breq	.+0      	; 0x76 <digitalWrite+0x2a>
  76:	23 30       	cpi	r18, 0x03	; 3
  78:	01 f4       	brne	.+0      	; 0x7a <digitalWrite+0x2e>
  7a:	80 91 80 00 	lds	r24, 0x0080
  7e:	8f 77       	andi	r24, 0x7F	; 127
  80:	00 c0       	rjmp	.+0      	; 0x82 <digitalWrite+0x36>
  82:	24 30       	cpi	r18, 0x04	; 4
  84:	01 f4       	brne	.+0      	; 0x86 <digitalWrite+0x3a>
  86:	80 91 80 00 	lds	r24, 0x0080
  8a:	8f 7d       	andi	r24, 0xDF	; 223
  8c:	80 93 80 00 	sts	0x0080, r24
  90:	00 c0       	rjmp	.+0      	; 0x92 <digitalWrite+0x46>
  92:	21 30       	cpi	r18, 0x01	; 1
  94:	01 f4       	brne	.+0      	; 0x96 <digitalWrite+0x4a>
  96:	84 b5       	in	r24, 0x24	; 36
  98:	8f 77       	andi	r24, 0x7F	; 127
  9a:	00 c0       	rjmp	.+0      	; 0x9c <digitalWrite+0x50>
  9c:	22 30       	cpi	r18, 0x02	; 2
  9e:	01 f4       	brne	.+0      	; 0xa0 <digitalWrite+0x54>
  a0:	84 b5       	in	r24, 0x24	; 36
  a2:	8f 7d       	andi	r24, 0xDF	; 223
  a4:	84 bd       	out	0x24, r24	; 36
  a6:	00 c0       	rjmp	.+0      	; 0xa8 <digitalWrite+0x5c>
  a8:	26 30       	cpi	r18, 0x06	; 6
  aa:	01 f4       	brne	.+0      	; 0xac <digitalWrite+0x60>
  ac:	80 91 b0 00 	lds	r24, 0x00B0
  b0:	8f 77       	andi	r24, 0x7F	; 127
  b2:	00 c0       	rjmp	.+0      	; 0xb4 <digitalWrite+0x68>
  b4:	27 30       	cpi	r18, 0x07	; 7
  b6:	01 f4       	brne	.+0      	; 0xb8 <digitalWrite+0x6c>
  b8:	80 91 b0 00 	lds	r24, 0x00B0
  bc:	8f 7d       	andi	r24, 0xDF	; 223
  be:	80 93 b0 00 	sts	0x00B0, r24
  c2:	e9 2f       	mov	r30, r25
  c4:	f0 e0       	ldi	r31, 0x00	; 0
  c6:	ee 0f       	add	r30, r30
  c8:	ff 1f       	adc	r31, r31
  ca:	e0 50       	subi	r30, 0x00	; 0
  cc:	f0 40       	sbci	r31, 0x00	; 0
  ce:	a5 91       	lpm	r26, Z+
  d0:	b4 91       	lpm	r27, Z+
  d2:	66 23       	and	r22, r22
  d4:	01 f4       	brne	.+0      	; 0xd6 <digitalWrite+0x8a>
  d6:	9f b7       	in	r25, 0x3f	; 63
  d8:	f8 94       	cli
  da:	8c 91       	ld	r24, X
  dc:	30 95       	com	r19
  de:	83 23       	and	r24, r19
  e0:	8c 93       	st	X, r24
  e2:	9f bf       	out	0x3f, r25	; 63
  e4:	08 95       	ret
  e6:	9f b7       	in	r25, 0x3f	; 63
  e8:	f8 94       	cli
  ea:	8c 91       	ld	r24, X
  ec:	83 2b       	or	r24, r19
  ee:	8c 93       	st	X, r24
  f0:	9f bf       	out	0x3f, r25	; 63
  f2:	08 95       	ret

000000f4 <digitalRead>:
  f4:	68 2f       	mov	r22, r24
  f6:	70 e0       	ldi	r23, 0x00	; 0
  f8:	cb 01       	movw	r24, r22
  fa:	80 50       	subi	r24, 0x00	; 0
  fc:	90 40       	sbci	r25, 0x00	; 0
  fe:	fc 01       	movw	r30, r24
 100:	24 91       	lpm	r18, Z+
 102:	cb 01       	movw	r24, r22
 104:	80 50       	subi	r24, 0x00	; 0
 106:	90 40       	sbci	r25, 0x00	; 0
 108:	fc 01       	movw	r30, r24
 10a:	44 91       	lpm	r20, Z+
 10c:	60 50       	subi	r22, 0x00	; 0
 10e:	70 40       	sbci	r23, 0x00	; 0
 110:	fb 01       	movw	r30, r22
 112:	94 91       	lpm	r25, Z+
 114:	99 23       	and	r25, r25
 116:	01 f4       	brne	.+0      	; 0x118 <digitalRead+0x24>
 118:	20 e0       	ldi	r18, 0x00	; 0
 11a:	30 e0       	ldi	r19, 0x00	; 0
 11c:	00 c0       	rjmp	.+0      	; 0x11e <digitalRead+0x2a>
 11e:	22 23       	and	r18, r18
 120:	01 f0       	breq	.+0      	; 0x122 <digitalRead+0x2e>
 122:	23 30       	cpi	r18, 0x03	; 3
 124:	01 f4       	brne	.+0      	; 0x126 <digitalRead+0x32>
 126:	80 91 80 00 	lds	r24, 0x0080
 12a:	8f 77       	andi	r24, 0x7F	; 127
 12c:	00 c0       	rjmp	.+0      	; 0x12e <digitalRead+0x3a>
 12e:	24 30       	cpi	r18, 0x04	; 4
 130:	01 f4       	brne	.+0      	; 0x132 <digitalRead+0x3e>
 132:	80 91 80 00 	lds	r24, 0x0080
 136:	8f 7d       	andi	r24, 0xDF	; 223
 138:	80 93 80 00 	sts	0x0080, r24
 13c:	00 c0       	rjmp	.+0      	; 0x13e <digitalRead+0x4a>
 13e:	21 30       	cpi	r18, 0x01	; 1
 140:	01 f4       	brne	.+0      	; 0x142 <digitalRead+0x4e>
 142:	84 b5       	in	r24, 0x24	; 36
 144:	8f 77       	andi	r24, 0x7F	; 127
 146:	00 c0       	rjmp	.+0      	; 0x148 <digitalRead+0x54>
 148:	22 30       	cpi	r18, 0x02	; 2
 14a:	01 f4       	brne	.+0      	; 0x14c <digitalRead+0x58>
 14c:	84 b5       	in	r24, 0x24	; 36
 14e:	8f 7d       	andi	r24, 0xDF	; 223
 150:	84 bd       	out	0x24, r24	; 36
 152:	00 c0       	rjmp	.+0      	; 0x154 <digitalRead+0x60>
 154:	26 30       	cpi	r18, 0x06	; 6
 156:	01 f4       	brne	.+0      	; 0x158 <digitalRead+0x64>
 158:	80 91 b0 00 	lds	r24, 0x00B0
 15c:	8f 77       	andi	r24, 0x7F	; 127
 15e:	00 c0       	rjmp	.+0      	; 0x160 <digitalRead+0x6c>
 160:	27 30       	cpi	r18, 0x07	; 7
 162:	01 f4       	brne	.+0      	; 0x164 <digitalRead+0x70>
 164:	80 91 b0 00 	lds	r24, 0x00B0
 168:	8f 7d       	andi	r24, 0xDF	; 223
 16a:	80 93 b0 00 	sts	0x00B0, r24
 16e:	89 2f       	mov	r24, r25
 170:	90 e0       	ldi	r25, 0x00	; 0
 172:	88 0f       	add	r24, r24
 174:	99 1f       	adc	r25, r25
 176:	80 50       	subi	r24, 0x00	; 0
 178:	90 40       	sbci	r25, 0x00	; 0
 17a:	fc 01       	movw	r30, r24
 17c:	a5 91       	lpm	r26, Z+
 17e:	b4 91       	lpm	r27, Z+
 180:	8c 91       	ld	r24, X
 182:	20 e0       	ldi	r18, 0x00	; 0
 184:	30 e0       	ldi	r19, 0x00	; 0
 186:	84 23       	and	r24, r20
 188:	01 f0       	breq	.+0      	; 0x18a <digitalRead+0x96>
 18a:	21 e0       	ldi	r18, 0x01	; 1
 18c:	30 e0       	ldi	r19, 0x00	; 0
 18e:	c9 01       	movw	r24, r18
 190:	08 95       	ret

wiring_pulse.o:     file format elf32-avr

Sections:
Idx Name          Size      VMA       LMA       File off  Algn
  0 .text         00000102  00000000  00000000  00000034  2**0
                  CONTENTS, ALLOC, LOAD, RELOC, READONLY, CODE
  1 .data         00000000  00000000  00000000  00000136  2**0
                  CONTENTS, ALLOC, LOAD, DATA
  2 .bss          00000000  00000000  00000000  00000136  2**0
                  ALLOC

Disassembly of section .text:

00000000 <pulseIn>:
   0:	df 92       	push	r13
   2:	ef 92       	push	r14
   4:	ff 92       	push	r15
   6:	0f 93       	push	r16
   8:	1f 93       	push	r17
   a:	a8 2f       	mov	r26, r24
   c:	b0 e0       	ldi	r27, 0x00	; 0
   e:	cd 01       	movw	r24, r26
  10:	80 50       	subi	r24, 0x00	; 0
  12:	90 40       	sbci	r25, 0x00	; 0
  14:	fc 01       	movw	r30, r24
  16:	d4 90       	lpm	r13, Z+
  18:	a0 50       	subi	r26, 0x00	; 0
  1a:	b0 40       	sbci	r27, 0x00	; 0
  1c:	fd 01       	movw	r30, r26
  1e:	84 91       	lpm	r24, Z+
  20:	66 23       	and	r22, r22
  22:	01 f4       	brne	.+0      	; 0x24 <pulseIn+0x24>
  24:	90 e0       	ldi	r25, 0x00	; 0
  26:	00 c0       	rjmp	.+0      	; 0x28 <pulseIn+0x28>
  28:	9d 2d       	mov	r25, r13
  2a:	6f ef       	ldi	r22, 0xFF	; 255
  2c:	e6 2e       	mov	r14, r22
  2e:	6f ef       	ldi	r22, 0xFF	; 255
  30:	f6 2e       	mov	r15, r22
  32:	6f ef       	ldi	r22, 0xFF	; 255
  34:	06 2f       	mov	r16, r22
  36:	6f e0       	ldi	r22, 0x0F	; 15
  38:	16 2f       	mov	r17, r22
  3a:	e2 22       	and	r14, r18
  3c:	f3 22       	and	r15, r19
  3e:	04 23       	and	r16, r20
  40:	15 23       	and	r17, r21
  42:	68 2f       	mov	r22, r24
  44:	70 e0       	ldi	r23, 0x00	; 0
  46:	66 0f       	add	r22, r22
  48:	77 1f       	adc	r23, r23
  4a:	60 50       	subi	r22, 0x00	; 0
  4c:	70 40       	sbci	r23, 0x00	; 0
  4e:	20 e0       	ldi	r18, 0x00	; 0
  50:	30 e0       	ldi	r19, 0x00	; 0
  52:	40 e0       	ldi	r20, 0x00	; 0
  54:	50 e0       	ldi	r21, 0x00	; 0
  56:	fb 01       	movw	r30, r22
  58:	a5 91       	lpm	r26, Z+
  5a:	b4 91       	lpm	r27, Z+
  5c:	00 c0       	rjmp	.+0      	; 0x5e <pulseIn+0x5e>
  5e:	2e 15       	cp	r18, r14
  60:	3f 05       	cpc	r19, r15
  62:	40 07       	cpc	r20, r16
  64:	51 07       	cpc	r21, r17
  66:	01 f4       	brne	.+0      	; 0x68 <pulseIn+0x68>
  68:	00 c0       	rjmp	.+0      	; 0x6a <pulseIn+0x6a>
  6a:	2f 5f       	subi	r18, 0xFF	; 255
  6c:	3f 4f       	sbci	r19, 0xFF	; 255
  6e:	4f 4f       	sbci	r20, 0xFF	; 255
  70:	5f 4f       	sbci	r21, 0xFF	; 255
  72:	8c 91       	ld	r24, X
  74:	8d 21       	and	r24, r13
  76:	89 17       	cp	r24, r25
  78:	01 f0       	breq	.+0      	; 0x7a <pulseIn+0x7a>
  7a:	00 c0       	rjmp	.+0      	; 0x7c <pulseIn+0x7c>
  7c:	2e 15       	cp	r18, r14
  7e:	3f 05       	cpc	r19, r15
  80:	40 07       	cpc	r20, r16
  82:	51 07       	cpc	r21, r17
  84:	01 f0       	breq	.+0      	; 0x86 <pulseIn+0x86>
  86:	2f 5f       	subi	r18, 0xFF	; 255
  88:	3f 4f       	sbci	r19, 0xFF	; 255
  8a:	4f 4f       	sbci	r20, 0xFF	; 255
  8c:	5f 4f       	sbci	r21, 0xFF	; 255
  8e:	00 c0       	rjmp	.+0      	; 0x90 <pulseIn+0x90>
  90:	fb 01       	movw	r30, r22
  92:	a5 91       	lpm	r26, Z+
  94:	b4 91       	lpm	r27, Z+
  96:	8c 91       	ld	r24, X
  98:	8d 21       	and	r24, r13
  9a:	89 17       	cp	r24, r25
  9c:	01 f4       	brne	.+0      	; 0x9e <pulseIn+0x9e>
  9e:	20 e0       	ldi	r18, 0x00	; 0
  a0:	30 e0       	ldi	r19, 0x00	; 0
  a2:	40 e0       	ldi	r20, 0x00	; 0
  a4:	50 e0       	ldi	r21, 0x00	; 0
  a6:	fb 01       	movw	r30, r22
  a8:	a5 91       	lpm	r26, Z+
  aa:	b4 91       	lpm	r27, Z+
  ac:	00 c0       	rjmp	.+0      	; 0xae <pulseIn+0xae>
  ae:	2f 5f       	subi	r18, 0xFF	; 255
  b0:	3f 4f       	sbci	r19, 0xFF	; 255
  b2:	4f 4f       	sbci	r20, 0xFF	; 255
  b4:	5f 4f       	sbci	r21, 0xFF	; 255
  b6:	8c 91       	ld	r24, X
  b8:	8d 21       	and	r24, r13
  ba:	89 17       	cp	r24, r25
  bc:	01 f0       	breq	.+0      	; 0xbe <pulseIn+0xbe>
  be:	ca 01       	movw	r24, r20
  c0:	b9 01       	movw	r22, r18
  c2:	2a e0       	ldi	r18, 0x0A	; 10
  c4:	30 e0       	ldi	r19, 0x00	; 0
  c6:	40 e0       	ldi	r20, 0x00	; 0
  c8:	50 e0       	ldi	r21, 0x00	; 0
  ca:	0e 94 00 00 	call	0	; 0x0 <pulseIn>
  ce:	9b 01       	movw	r18, r22
  d0:	ac 01       	movw	r20, r24
  d2:	20 5f       	subi	r18, 0xF0	; 240
  d4:	3f 4f       	sbci	r19, 0xFF	; 255
  d6:	4f 4f       	sbci	r20, 0xFF	; 255
  d8:	5f 4f       	sbci	r21, 0xFF	; 255
  da:	84 e0       	ldi	r24, 0x04	; 4
  dc:	56 95       	lsr	r21
  de:	47 95       	ror	r20
  e0:	37 95       	ror	r19
  e2:	27 95       	ror	r18
  e4:	8a 95       	dec	r24
  e6:	01 f4       	brne	.+0      	; 0xe8 <pulseIn+0xe8>
  e8:	00 c0       	rjmp	.+0      	; 0xea <pulseIn+0xea>
  ea:	20 e0       	ldi	r18, 0x00	; 0
  ec:	30 e0       	ldi	r19, 0x00	; 0
  ee:	40 e0       	ldi	r20, 0x00	; 0
  f0:	50 e0       	ldi	r21, 0x00	; 0
  f2:	b9 01       	movw	r22, r18
  f4:	ca 01       	movw	r24, r20
  f6:	1f 91       	pop	r17
  f8:	0f 91       	pop	r16
  fa:	ff 90       	pop	r15
  fc:	ef 90       	pop	r14
  fe:	df 90       	pop	r13
 100:	08 95       	ret

wiring_shift.o:     file format elf32-avr

Sections:
Idx Name          Size      VMA       LMA       File off  Algn
  0 .text         00000104  00000000  00000000  00000034  2**0
                  CONTENTS, ALLOC, LOAD, RELOC, READONLY, CODE
  1 .data         00000000  00000000  00000000  00000138  2**0
                  CONTENTS, ALLOC, LOAD, DATA
  2 .bss          00000000  00000000  00000000  00000138  2**0
                  ALLOC

Disassembly of section .text:

00000000 <shiftOut>:
   0:	bf 92       	push	r11
   2:	cf 92       	push	r12
   4:	df 92       	push	r13
   6:	ef 92       	push	r14
   8:	ff 92       	push	r15
   a:	0f 93       	push	r16
   c:	1f 93       	push	r17
   e:	cf 93       	push	r28
  10:	df 93       	push	r29
  12:	e8 2e       	mov	r14, r24
  14:	f6 2e       	mov	r15, r22
  16:	b4 2e       	mov	r11, r20
  18:	c7 e0       	ldi	r28, 0x07	; 7
  1a:	d0 e0       	ldi	r29, 0x00	; 0
  1c:	02 2f       	mov	r16, r18
  1e:	10 e0       	ldi	r17, 0x00	; 0
  20:	87 e0       	ldi	r24, 0x07	; 7
  22:	c8 2e       	mov	r12, r24
  24:	d1 2c       	mov	r13, r1
  26:	bb 20       	and	r11, r11
  28:	01 f4       	brne	.+0      	; 0x2a <shiftOut+0x2a>
  2a:	b6 01       	movw	r22, r12
  2c:	6c 1b       	sub	r22, r28
  2e:	7d 0b       	sbc	r23, r29
  30:	c8 01       	movw	r24, r16
  32:	00 c0       	rjmp	.+0      	; 0x34 <shiftOut+0x34>
  34:	95 95       	asr	r25
  36:	87 95       	ror	r24
  38:	6a 95       	dec	r22
  3a:	02 f4       	brpl	.+0      	; 0x3c <shiftOut+0x3c>
  3c:	bc 01       	movw	r22, r24
  3e:	00 c0       	rjmp	.+0      	; 0x40 <shiftOut+0x40>
  40:	b8 01       	movw	r22, r16
  42:	0c 2e       	mov	r0, r28
  44:	00 c0       	rjmp	.+0      	; 0x46 <shiftOut+0x46>
  46:	75 95       	asr	r23
  48:	67 95       	ror	r22
  4a:	0a 94       	dec	r0
  4c:	02 f4       	brpl	.+0      	; 0x4e <shiftOut+0x4e>
  4e:	61 70       	andi	r22, 0x01	; 1
  50:	8e 2d       	mov	r24, r14
  52:	0e 94 00 00 	call	0	; 0x0 <shiftOut>
  56:	8f 2d       	mov	r24, r15
  58:	61 e0       	ldi	r22, 0x01	; 1
  5a:	0e 94 00 00 	call	0	; 0x0 <shiftOut>
  5e:	8f 2d       	mov	r24, r15
  60:	60 e0       	ldi	r22, 0x00	; 0
  62:	0e 94 00 00 	call	0	; 0x0 <shiftOut>
  66:	21 97       	sbiw	r28, 0x01	; 1
  68:	9f ef       	ldi	r25, 0xFF	; 255
  6a:	cf 3f       	cpi	r28, 0xFF	; 255
  6c:	d9 07       	cpc	r29, r25
  6e:	01 f4       	brne	.+0      	; 0x70 <shiftOut+0x70>
  70:	df 91       	pop	r29
  72:	cf 91       	pop	r28
  74:	1f 91       	pop	r17
  76:	0f 91       	pop	r16
  78:	ff 90       	pop	r15
  7a:	ef 90       	pop	r14
  7c:	df 90       	pop	r13
  7e:	cf 90       	pop	r12
  80:	bf 90       	pop	r11
  82:	08 95       	ret

00000084 <shiftIn>:
  84:	cf 92       	push	r12
  86:	df 92       	push	r13
  88:	ef 92       	push	r14
  8a:	ff 92       	push	r15
  8c:	0f 93       	push	r16
  8e:	1f 93       	push	r17
  90:	cf 93       	push	r28
  92:	df 93       	push	r29
  94:	f8 2e       	mov	r15, r24
  96:	06 2f       	mov	r16, r22
  98:	e4 2e       	mov	r14, r20
  9a:	10 e0       	ldi	r17, 0x00	; 0
  9c:	c7 e0       	ldi	r28, 0x07	; 7
  9e:	d0 e0       	ldi	r29, 0x00	; 0
  a0:	97 e0       	ldi	r25, 0x07	; 7
  a2:	c9 2e       	mov	r12, r25
  a4:	d1 2c       	mov	r13, r1
  a6:	80 2f       	mov	r24, r16
  a8:	61 e0       	ldi	r22, 0x01	; 1
  aa:	0e 94 00 00 	call	0	; 0x0 <shiftOut>
  ae:	ee 20       	and	r14, r14
  b0:	01 f4       	brne	.+0      	; 0xb2 <shiftIn+0x2e>
  b2:	8f 2d       	mov	r24, r15
  b4:	0e 94 00 00 	call	0	; 0x0 <shiftOut>
  b8:	96 01       	movw	r18, r12
  ba:	2c 1b       	sub	r18, r28
  bc:	3d 0b       	sbc	r19, r29
  be:	00 c0       	rjmp	.+0      	; 0xc0 <shiftIn+0x3c>
  c0:	88 0f       	add	r24, r24
  c2:	99 1f       	adc	r25, r25
  c4:	2a 95       	dec	r18
  c6:	02 f4       	brpl	.+0      	; 0xc8 <shiftIn+0x44>
  c8:	00 c0       	rjmp	.+0      	; 0xca <shiftIn+0x46>
  ca:	8f 2d       	mov	r24, r15
  cc:	0e 94 00 00 	call	0	; 0x0 <shiftOut>
  d0:	0c 2e       	mov	r0, r28
  d2:	00 c0       	rjmp	.+0      	; 0xd4 <shiftIn+0x50>
  d4:	88 0f       	add	r24, r24
  d6:	99 1f       	adc	r25, r25
  d8:	0a 94       	dec	r0
  da:	02 f4       	brpl	.+0      	; 0xdc <shiftIn+0x58>
  dc:	18 2b       	or	r17, r24
  de:	80 2f       	mov	r24, r16
  e0:	60 e0       	ldi	r22, 0x00	; 0
  e2:	0e 94 00 00 	call	0	; 0x0 <shiftOut>
  e6:	21 97       	sbiw	r28, 0x01	; 1
  e8:	8f ef       	ldi	r24, 0xFF	; 255
  ea:	cf 3f       	cpi	r28, 0xFF	; 255
  ec:	d8 07       	cpc	r29, r24
  ee:	01 f4       	brne	.+0      	; 0xf0 <shiftIn+0x6c>
  f0:	81 2f       	mov	r24, r17
  f2:	df 91       	pop	r29
  f4:	cf 91       	pop	r28
  f6:	1f 91       	pop	r17
  f8:	0f 91       	pop	r16
  fa:	ff 90       	pop	r15
  fc:	ef 90       	pop	r14
  fe:	df 90       	pop	r13
 100:	cf 90       	pop	r12
 102:	08 95       	ret

WString.o:     file format elf32-avr

Sections:
Idx Name          Size      VMA       LMA       File off  Algn
  0 .text         0000100a  00000000  00000000  00000034  2**0
                  CONTENTS, ALLOC, LOAD, RELOC, READONLY, CODE
  1 .data         00000001  00000000  00000000  0000103e  2**0
                  CONTENTS, ALLOC, LOAD, DATA
  2 .bss          00000001  00000000  00000000  0000103f  2**0
                  ALLOC

Disassembly of section .text:

00000000 <_ZNK6String6charAtEj>:
       0:	fc 01       	movw	r30, r24
       2:	01 90       	ld	r0, Z+
       4:	f0 81       	ld	r31, Z
       6:	e0 2d       	mov	r30, r0
       8:	e6 0f       	add	r30, r22
       a:	f7 1f       	adc	r31, r23
       c:	80 81       	ld	r24, Z
       e:	08 95       	ret

00000010 <_ZN6String9setCharAtEjc>:
      10:	dc 01       	movw	r26, r24
      12:	ed 91       	ld	r30, X+
      14:	fc 91       	ld	r31, X
      16:	11 97       	sbiw	r26, 0x01	; 1
      18:	30 97       	sbiw	r30, 0x00	; 0
      1a:	01 f0       	breq	.+0      	; 0x1c <_ZN6String9setCharAtEjc+0xc>
      1c:	14 96       	adiw	r26, 0x04	; 4
      1e:	8d 91       	ld	r24, X+
      20:	9c 91       	ld	r25, X
      22:	15 97       	sbiw	r26, 0x05	; 5
      24:	68 17       	cp	r22, r24
      26:	79 07       	cpc	r23, r25
      28:	00 f4       	brcc	.+0      	; 0x2a <_ZN6String9setCharAtEjc+0x1a>
      2a:	e6 0f       	add	r30, r22
      2c:	f7 1f       	adc	r31, r23
      2e:	40 83       	st	Z, r20
      30:	08 95       	ret

00000032 <_ZN6StringixEj>:
      32:	fc 01       	movw	r30, r24
      34:	9b 01       	movw	r18, r22
      36:	84 81       	ldd	r24, Z+4	; 0x04
      38:	95 81       	ldd	r25, Z+5	; 0x05
      3a:	68 17       	cp	r22, r24
      3c:	79 07       	cpc	r23, r25
      3e:	00 f4       	brcc	.+0      	; 0x40 <_ZN6StringixEj+0xe>
      40:	60 81       	ld	r22, Z
      42:	71 81       	ldd	r23, Z+1	; 0x01
      44:	61 15       	cp	r22, r1
      46:	71 05       	cpc	r23, r1
      48:	01 f4       	brne	.+0      	; 0x4a <_ZN6StringixEj+0x18>
      4a:	10 92 00 00 	sts	0x0000, r1
      4e:	60 e0       	ldi	r22, 0x00	; 0
      50:	70 e0       	ldi	r23, 0x00	; 0
      52:	00 c0       	rjmp	.+0      	; 0x54 <_ZN6StringixEj+0x22>
      54:	62 0f       	add	r22, r18
      56:	73 1f       	adc	r23, r19
      58:	cb 01       	movw	r24, r22
      5a:	08 95       	ret

0000005c <_ZNK6StringixEj>:
      5c:	fc 01       	movw	r30, r24
      5e:	01 90       	ld	r0, Z+
      60:	f0 81       	ld	r31, Z
      62:	e0 2d       	mov	r30, r0
      64:	e6 0f       	add	r30, r22
      66:	f7 1f       	adc	r31, r23
      68:	80 81       	ld	r24, Z
      6a:	08 95       	ret

0000006c <_ZN6String11toCharArrayEPcj>:
      6c:	0f 93       	push	r16
      6e:	1f 93       	push	r17
      70:	cf 93       	push	r28
      72:	df 93       	push	r29
      74:	fc 01       	movw	r30, r24
      76:	8b 01       	movw	r16, r22
      78:	41 15       	cp	r20, r1
      7a:	51 05       	cpc	r21, r1
      7c:	01 f0       	breq	.+0      	; 0x7e <_ZN6String11toCharArrayEPcj+0x12>
      7e:	61 15       	cp	r22, r1
      80:	71 05       	cpc	r23, r1
      82:	01 f0       	breq	.+0      	; 0x84 <_ZN6String11toCharArrayEPcj+0x18>
      84:	84 81       	ldd	r24, Z+4	; 0x04
      86:	95 81       	ldd	r25, Z+5	; 0x05
      88:	ea 01       	movw	r28, r20
      8a:	21 97       	sbiw	r28, 0x01	; 1
      8c:	8c 17       	cp	r24, r28
      8e:	9d 07       	cpc	r25, r29
      90:	00 f4       	brcc	.+0      	; 0x92 <_ZN6String11toCharArrayEPcj+0x26>
      92:	ec 01       	movw	r28, r24
      94:	60 81       	ld	r22, Z
      96:	71 81       	ldd	r23, Z+1	; 0x01
      98:	c8 01       	movw	r24, r16
      9a:	ae 01       	movw	r20, r28
      9c:	0e 94 00 00 	call	0	; 0x0 <_ZNK6String6charAtEj>
      a0:	c0 0f       	add	r28, r16
      a2:	d1 1f       	adc	r29, r17
      a4:	18 82       	st	Y, r1
      a6:	df 91       	pop	r29
      a8:	cf 91       	pop	r28
      aa:	1f 91       	pop	r17
      ac:	0f 91       	pop	r16
      ae:	08 95       	ret

000000b0 <_ZN6String8getBytesEPhj>:
      b0:	0f 93       	push	r16
      b2:	1f 93       	push	r17
      b4:	cf 93       	push	r28
      b6:	df 93       	push	r29
      b8:	fc 01       	movw	r30, r24
      ba:	8b 01       	movw	r16, r22
      bc:	41 15       	cp	r20, r1
      be:	51 05       	cpc	r21, r1
      c0:	01 f0       	breq	.+0      	; 0xc2 <_ZN6String8getBytesEPhj+0x12>
      c2:	61 15       	cp	r22, r1
      c4:	71 05       	cpc	r23, r1
      c6:	01 f0       	breq	.+0      	; 0xc8 <_ZN6String8getBytesEPhj+0x18>
      c8:	84 81       	ldd	r24, Z+4	; 0x04
      ca:	95 81       	ldd	r25, Z+5	; 0x05
      cc:	ea 01       	movw	r28, r20
      ce:	21 97       	sbiw	r28, 0x01	; 1
      d0:	8c 17       	cp	r24, r28
      d2:	9d 07       	cpc	r25, r29
      d4:	00 f4       	brcc	.+0      	; 0xd6 <_ZN6String8getBytesEPhj+0x26>
      d6:	ec 01       	movw	r28, r24
      d8:	60 81       	ld	r22, Z
      da:	71 81       	ldd	r23, Z+1	; 0x01
      dc:	c8 01       	movw	r24, r16
      de:	ae 01       	movw	r20, r28
      e0:	0e 94 00 00 	call	0	; 0x0 <_ZNK6String6charAtEj>
      e4:	c0 0f       	add	r28, r16
      e6:	d1 1f       	adc	r29, r17
      e8:	18 82       	st	Y, r1
      ea:	df 91       	pop	r29
      ec:	cf 91       	pop	r28
      ee:	1f 91       	pop	r17
      f0:	0f 91       	pop	r16
      f2:	08 95       	ret

000000f4 <_ZN6StringD1Ev>:
      f4:	0f 93       	push	r16
      f6:	1f 93       	push	r17
      f8:	8c 01       	movw	r16, r24
      fa:	fc 01       	movw	r30, r24
      fc:	80 81       	ld	r24, Z
      fe:	91 81       	ldd	r25, Z+1	; 0x01
     100:	0e 94 00 00 	call	0	; 0x0 <_ZNK6String6charAtEj>
     104:	f8 01       	movw	r30, r16
     106:	13 82       	std	Z+3, r1	; 0x03
     108:	12 82       	std	Z+2, r1	; 0x02
     10a:	15 82       	std	Z+5, r1	; 0x05
     10c:	14 82       	std	Z+4, r1	; 0x04
     10e:	1f 91       	pop	r17
     110:	0f 91       	pop	r16
     112:	08 95       	ret

00000114 <_ZNK6String10startsWithERKS_j>:
     114:	fc 01       	movw	r30, r24
     116:	db 01       	movw	r26, r22
     118:	14 96       	adiw	r26, 0x04	; 4
     11a:	2d 91       	ld	r18, X+
     11c:	3c 91       	ld	r19, X
     11e:	15 97       	sbiw	r26, 0x05	; 5
     120:	84 81       	ldd	r24, Z+4	; 0x04
     122:	95 81       	ldd	r25, Z+5	; 0x05
     124:	82 1b       	sub	r24, r18
     126:	93 0b       	sbc	r25, r19
     128:	84 17       	cp	r24, r20
     12a:	95 07       	cpc	r25, r21
     12c:	00 f4       	brcc	.+0      	; 0x12e <_ZNK6String10startsWithERKS_j+0x1a>
     12e:	80 e0       	ldi	r24, 0x00	; 0
     130:	08 95       	ret
     132:	80 81       	ld	r24, Z
     134:	91 81       	ldd	r25, Z+1	; 0x01
     136:	6d 91       	ld	r22, X+
     138:	7c 91       	ld	r23, X
     13a:	84 0f       	add	r24, r20
     13c:	95 1f       	adc	r25, r21
     13e:	a9 01       	movw	r20, r18
     140:	0e 94 00 00 	call	0	; 0x0 <_ZNK6String6charAtEj>
     144:	9c 01       	movw	r18, r24
     146:	80 e0       	ldi	r24, 0x00	; 0
     148:	23 2b       	or	r18, r19
     14a:	01 f4       	brne	.+0      	; 0x14c <_ZNK6String10startsWithERKS_j+0x38>
     14c:	81 e0       	ldi	r24, 0x01	; 1
     14e:	08 95       	ret

00000150 <_ZNK6String10startsWithERKS_>:
     150:	fc 01       	movw	r30, r24
     152:	db 01       	movw	r26, r22
     154:	24 81       	ldd	r18, Z+4	; 0x04
     156:	35 81       	ldd	r19, Z+5	; 0x05
     158:	14 96       	adiw	r26, 0x04	; 4
     15a:	8d 91       	ld	r24, X+
     15c:	9c 91       	ld	r25, X
     15e:	15 97       	sbiw	r26, 0x05	; 5
     160:	28 17       	cp	r18, r24
     162:	39 07       	cpc	r19, r25
     164:	00 f4       	brcc	.+0      	; 0x166 <_ZNK6String10startsWithERKS_+0x16>
     166:	80 e0       	ldi	r24, 0x00	; 0
     168:	08 95       	ret
     16a:	cf 01       	movw	r24, r30
     16c:	40 e0       	ldi	r20, 0x00	; 0
     16e:	50 e0       	ldi	r21, 0x00	; 0
     170:	0e 94 00 00 	call	0	; 0x0 <_ZNK6String6charAtEj>
     174:	08 95       	ret

00000176 <_ZNK6String11lastIndexOfEcj>:
     176:	df 92       	push	r13
     178:	ef 92       	push	r14
     17a:	ff 92       	push	r15
     17c:	0f 93       	push	r16
     17e:	1f 93       	push	r17
     180:	cf 93       	push	r28
     182:	df 93       	push	r29
     184:	ec 01       	movw	r28, r24
     186:	8c 81       	ldd	r24, Y+4	; 0x04
     188:	9d 81       	ldd	r25, Y+5	; 0x05
     18a:	48 17       	cp	r20, r24
     18c:	59 07       	cpc	r21, r25
     18e:	00 f4       	brcc	.+0      	; 0x190 <_ZNK6String11lastIndexOfEcj+0x1a>
     190:	7a 01       	movw	r14, r20
     192:	08 94       	sec
     194:	e1 1c       	adc	r14, r1
     196:	f1 1c       	adc	r15, r1
     198:	e8 81       	ld	r30, Y
     19a:	f9 81       	ldd	r31, Y+1	; 0x01
     19c:	ee 0d       	add	r30, r14
     19e:	ff 1d       	adc	r31, r15
     1a0:	d0 80       	ld	r13, Z
     1a2:	10 82       	st	Z, r1
     1a4:	08 81       	ld	r16, Y
     1a6:	19 81       	ldd	r17, Y+1	; 0x01
     1a8:	c8 01       	movw	r24, r16
     1aa:	70 e0       	ldi	r23, 0x00	; 0
     1ac:	0e 94 00 00 	call	0	; 0x0 <_ZNK6String6charAtEj>
     1b0:	9c 01       	movw	r18, r24
     1b2:	0e 0d       	add	r16, r14
     1b4:	1f 1d       	adc	r17, r15
     1b6:	f8 01       	movw	r30, r16
     1b8:	d0 82       	st	Z, r13
     1ba:	00 97       	sbiw	r24, 0x00	; 0
     1bc:	01 f4       	brne	.+0      	; 0x1be <_ZNK6String11lastIndexOfEcj+0x48>
     1be:	ef ef       	ldi	r30, 0xFF	; 255
     1c0:	ff ef       	ldi	r31, 0xFF	; 255
     1c2:	00 c0       	rjmp	.+0      	; 0x1c4 <_ZNK6String11lastIndexOfEcj+0x4e>
     1c4:	88 81       	ld	r24, Y
     1c6:	99 81       	ldd	r25, Y+1	; 0x01
     1c8:	f9 01       	movw	r30, r18
     1ca:	e8 1b       	sub	r30, r24
     1cc:	f9 0b       	sbc	r31, r25
     1ce:	cf 01       	movw	r24, r30
     1d0:	df 91       	pop	r29
     1d2:	cf 91       	pop	r28
     1d4:	1f 91       	pop	r17
     1d6:	0f 91       	pop	r16
     1d8:	ff 90       	pop	r15
     1da:	ef 90       	pop	r14
     1dc:	df 90       	pop	r13
     1de:	08 95       	ret

000001e0 <_ZNK6String11lastIndexOfEc>:
     1e0:	fc 01       	movw	r30, r24
     1e2:	44 81       	ldd	r20, Z+4	; 0x04
     1e4:	55 81       	ldd	r21, Z+5	; 0x05
     1e6:	41 50       	subi	r20, 0x01	; 1
     1e8:	50 40       	sbci	r21, 0x00	; 0
     1ea:	0e 94 00 00 	call	0	; 0x0 <_ZNK6String6charAtEj>
     1ee:	08 95       	ret

000001f0 <_ZNK6String7indexOfERKS_j>:
     1f0:	cf 93       	push	r28
     1f2:	df 93       	push	r29
     1f4:	fc 01       	movw	r30, r24
     1f6:	db 01       	movw	r26, r22
     1f8:	84 81       	ldd	r24, Z+4	; 0x04
     1fa:	95 81       	ldd	r25, Z+5	; 0x05
     1fc:	48 17       	cp	r20, r24
     1fe:	59 07       	cpc	r21, r25
     200:	00 f4       	brcc	.+0      	; 0x202 <_ZNK6String7indexOfERKS_j+0x12>
     202:	c0 81       	ld	r28, Z
     204:	d1 81       	ldd	r29, Z+1	; 0x01
     206:	6d 91       	ld	r22, X+
     208:	7c 91       	ld	r23, X
     20a:	ce 01       	movw	r24, r28
     20c:	84 0f       	add	r24, r20
     20e:	95 1f       	adc	r25, r21
     210:	0e 94 00 00 	call	0	; 0x0 <_ZNK6String6charAtEj>
     214:	9c 01       	movw	r18, r24
     216:	00 97       	sbiw	r24, 0x00	; 0
     218:	01 f4       	brne	.+0      	; 0x21a <_ZNK6String7indexOfERKS_j+0x2a>
     21a:	2f ef       	ldi	r18, 0xFF	; 255
     21c:	3f ef       	ldi	r19, 0xFF	; 255
     21e:	00 c0       	rjmp	.+0      	; 0x220 <_ZNK6String7indexOfERKS_j+0x30>
     220:	2c 1b       	sub	r18, r28
     222:	3d 0b       	sbc	r19, r29
     224:	c9 01       	movw	r24, r18
     226:	df 91       	pop	r29
     228:	cf 91       	pop	r28
     22a:	08 95       	ret

0000022c <_ZNK6String7indexOfERKS_>:
     22c:	40 e0       	ldi	r20, 0x00	; 0
     22e:	50 e0       	ldi	r21, 0x00	; 0
     230:	0e 94 00 00 	call	0	; 0x0 <_ZNK6String6charAtEj>
     234:	08 95       	ret

00000236 <_ZNK6String7indexOfEcj>:
     236:	cf 93       	push	r28
     238:	df 93       	push	r29
     23a:	fc 01       	movw	r30, r24
     23c:	84 81       	ldd	r24, Z+4	; 0x04
     23e:	95 81       	ldd	r25, Z+5	; 0x05
     240:	48 17       	cp	r20, r24
     242:	59 07       	cpc	r21, r25
     244:	00 f4       	brcc	.+0      	; 0x246 <_ZNK6String7indexOfEcj+0x10>
     246:	c0 81       	ld	r28, Z
     248:	d1 81       	ldd	r29, Z+1	; 0x01
     24a:	ce 01       	movw	r24, r28
     24c:	84 0f       	add	r24, r20
     24e:	95 1f       	adc	r25, r21
     250:	70 e0       	ldi	r23, 0x00	; 0
     252:	0e 94 00 00 	call	0	; 0x0 <_ZNK6String6charAtEj>
     256:	9c 01       	movw	r18, r24
     258:	00 97       	sbiw	r24, 0x00	; 0
     25a:	01 f4       	brne	.+0      	; 0x25c <_ZNK6String7indexOfEcj+0x26>
     25c:	2f ef       	ldi	r18, 0xFF	; 255
     25e:	3f ef       	ldi	r19, 0xFF	; 255
     260:	00 c0       	rjmp	.+0      	; 0x262 <_ZNK6String7indexOfEcj+0x2c>
     262:	2c 1b       	sub	r18, r28
     264:	3d 0b       	sbc	r19, r29
     266:	c9 01       	movw	r24, r18
     268:	df 91       	pop	r29
     26a:	cf 91       	pop	r28
     26c:	08 95       	ret

0000026e <_ZNK6String7indexOfEc>:
     26e:	40 e0       	ldi	r20, 0x00	; 0
     270:	50 e0       	ldi	r21, 0x00	; 0
     272:	0e 94 00 00 	call	0	; 0x0 <_ZNK6String6charAtEj>
     276:	08 95       	ret

00000278 <_ZNK6String6equalsERKS_>:
     278:	dc 01       	movw	r26, r24
     27a:	fb 01       	movw	r30, r22
     27c:	14 96       	adiw	r26, 0x04	; 4
     27e:	2d 91       	ld	r18, X+
     280:	3c 91       	ld	r19, X
     282:	15 97       	sbiw	r26, 0x05	; 5
     284:	84 81       	ldd	r24, Z+4	; 0x04
     286:	95 81       	ldd	r25, Z+5	; 0x05
     288:	28 17       	cp	r18, r24
     28a:	39 07       	cpc	r19, r25
     28c:	01 f0       	breq	.+0      	; 0x28e <_ZNK6String6equalsERKS_+0x16>
     28e:	80 e0       	ldi	r24, 0x00	; 0
     290:	08 95       	ret
     292:	60 81       	ld	r22, Z
     294:	71 81       	ldd	r23, Z+1	; 0x01
     296:	8d 91       	ld	r24, X+
     298:	9c 91       	ld	r25, X
     29a:	0e 94 00 00 	call	0	; 0x0 <_ZNK6String6charAtEj>
     29e:	9c 01       	movw	r18, r24
     2a0:	80 e0       	ldi	r24, 0x00	; 0
     2a2:	23 2b       	or	r18, r19
     2a4:	01 f4       	brne	.+0      	; 0x2a6 <_ZNK6String6equalsERKS_+0x2e>
     2a6:	81 e0       	ldi	r24, 0x01	; 1
     2a8:	08 95       	ret

000002aa <_ZNK6String8endsWithERKS_>:
     2aa:	fc 01       	movw	r30, r24
     2ac:	db 01       	movw	r26, r22
     2ae:	24 81       	ldd	r18, Z+4	; 0x04
     2b0:	35 81       	ldd	r19, Z+5	; 0x05
     2b2:	14 96       	adiw	r26, 0x04	; 4
     2b4:	8d 91       	ld	r24, X+
     2b6:	9c 91       	ld	r25, X
     2b8:	15 97       	sbiw	r26, 0x05	; 5
     2ba:	28 17       	cp	r18, r24
     2bc:	39 07       	cpc	r19, r25
     2be:	00 f4       	brcc	.+0      	; 0x2c0 <_ZNK6String8endsWithERKS_+0x16>
     2c0:	80 e0       	ldi	r24, 0x00	; 0
     2c2:	08 95       	ret
     2c4:	28 1b       	sub	r18, r24
     2c6:	39 0b       	sbc	r19, r25
     2c8:	80 81       	ld	r24, Z
     2ca:	91 81       	ldd	r25, Z+1	; 0x01
     2cc:	6d 91       	ld	r22, X+
     2ce:	7c 91       	ld	r23, X
     2d0:	82 0f       	add	r24, r18
     2d2:	93 1f       	adc	r25, r19
     2d4:	0e 94 00 00 	call	0	; 0x0 <_ZNK6String6charAtEj>
     2d8:	9c 01       	movw	r18, r24
     2da:	80 e0       	ldi	r24, 0x00	; 0
     2dc:	23 2b       	or	r18, r19
     2de:	01 f4       	brne	.+0      	; 0x2e0 <_ZNK6String8endsWithERKS_+0x36>
     2e0:	81 e0       	ldi	r24, 0x01	; 1
     2e2:	08 95       	ret

000002e4 <_ZNK6StringgeERKS_>:
     2e4:	dc 01       	movw	r26, r24
     2e6:	fb 01       	movw	r30, r22
     2e8:	60 81       	ld	r22, Z
     2ea:	71 81       	ldd	r23, Z+1	; 0x01
     2ec:	8d 91       	ld	r24, X+
     2ee:	9c 91       	ld	r25, X
     2f0:	0e 94 00 00 	call	0	; 0x0 <_ZNK6String6charAtEj>
     2f4:	29 2f       	mov	r18, r25
     2f6:	33 27       	eor	r19, r19
     2f8:	27 fd       	sbrc	r18, 7
     2fa:	30 95       	com	r19
     2fc:	20 95       	com	r18
     2fe:	30 95       	com	r19
     300:	22 27       	eor	r18, r18
     302:	33 0f       	add	r19, r19
     304:	22 1f       	adc	r18, r18
     306:	33 27       	eor	r19, r19
     308:	c9 01       	movw	r24, r18
     30a:	08 95       	ret

0000030c <_ZNK6StringleERKS_>:
     30c:	dc 01       	movw	r26, r24
     30e:	fb 01       	movw	r30, r22
     310:	60 81       	ld	r22, Z
     312:	71 81       	ldd	r23, Z+1	; 0x01
     314:	8d 91       	ld	r24, X+
     316:	9c 91       	ld	r25, X
     318:	0e 94 00 00 	call	0	; 0x0 <_ZNK6String6charAtEj>
     31c:	40 e0       	ldi	r20, 0x00	; 0
     31e:	50 e0       	ldi	r21, 0x00	; 0
     320:	18 16       	cp	r1, r24
     322:	19 06       	cpc	r1, r25
     324:	04 f0       	brlt	.+0      	; 0x326 <_ZNK6StringleERKS_+0x1a>
     326:	41 e0       	ldi	r20, 0x01	; 1
     328:	50 e0       	ldi	r21, 0x00	; 0
     32a:	ca 01       	movw	r24, r20
     32c:	08 95       	ret

0000032e <_ZNK6StringgtERKS_>:
     32e:	dc 01       	movw	r26, r24
     330:	fb 01       	movw	r30, r22
     332:	60 81       	ld	r22, Z
     334:	71 81       	ldd	r23, Z+1	; 0x01
     336:	8d 91       	ld	r24, X+
     338:	9c 91       	ld	r25, X
     33a:	0e 94 00 00 	call	0	; 0x0 <_ZNK6String6charAtEj>
     33e:	40 e0       	ldi	r20, 0x00	; 0
     340:	50 e0       	ldi	r21, 0x00	; 0
     342:	18 16       	cp	r1, r24
     344:	19 06       	cpc	r1, r25
     346:	04 f4       	brge	.+0      	; 0x348 <_ZNK6StringgtERKS_+0x1a>
     348:	41 e0       	ldi	r20, 0x01	; 1
     34a:	50 e0       	ldi	r21, 0x00	; 0
     34c:	ca 01       	movw	r24, r20
     34e:	08 95       	ret

00000350 <_ZNK6StringltERKS_>:
     350:	dc 01       	movw	r26, r24
     352:	fb 01       	movw	r30, r22
     354:	60 81       	ld	r22, Z
     356:	71 81       	ldd	r23, Z+1	; 0x01
     358:	8d 91       	ld	r24, X+
     35a:	9c 91       	ld	r25, X
     35c:	0e 94 00 00 	call	0	; 0x0 <_ZNK6String6charAtEj>
     360:	29 2f       	mov	r18, r25
     362:	33 27       	eor	r19, r19
     364:	27 fd       	sbrc	r18, 7
     366:	30 95       	com	r19
     368:	22 27       	eor	r18, r18
     36a:	33 0f       	add	r19, r19
     36c:	22 1f       	adc	r18, r18
     36e:	33 27       	eor	r19, r19
     370:	c9 01       	movw	r24, r18
     372:	08 95       	ret

00000374 <_ZNK6StringneERKS_>:
     374:	dc 01       	movw	r26, r24
     376:	fb 01       	movw	r30, r22
     378:	14 96       	adiw	r26, 0x04	; 4
     37a:	2d 91       	ld	r18, X+
     37c:	3c 91       	ld	r19, X
     37e:	15 97       	sbiw	r26, 0x05	; 5
     380:	84 81       	ldd	r24, Z+4	; 0x04
     382:	95 81       	ldd	r25, Z+5	; 0x05
     384:	28 17       	cp	r18, r24
     386:	39 07       	cpc	r19, r25
     388:	01 f4       	brne	.+0      	; 0x38a <_ZNK6StringneERKS_+0x16>
     38a:	60 81       	ld	r22, Z
     38c:	71 81       	ldd	r23, Z+1	; 0x01
     38e:	8d 91       	ld	r24, X+
     390:	9c 91       	ld	r25, X
     392:	0e 94 00 00 	call	0	; 0x0 <_ZNK6String6charAtEj>
     396:	9c 01       	movw	r18, r24
     398:	80 e0       	ldi	r24, 0x00	; 0
     39a:	23 2b       	or	r18, r19
     39c:	01 f0       	breq	.+0      	; 0x39e <_ZNK6StringneERKS_+0x2a>
     39e:	81 e0       	ldi	r24, 0x01	; 1
     3a0:	90 e0       	ldi	r25, 0x00	; 0
     3a2:	08 95       	ret

000003a4 <_ZNK6StringeqERKS_>:
     3a4:	dc 01       	movw	r26, r24
     3a6:	fb 01       	movw	r30, r22
     3a8:	14 96       	adiw	r26, 0x04	; 4
     3aa:	2d 91       	ld	r18, X+
     3ac:	3c 91       	ld	r19, X
     3ae:	15 97       	sbiw	r26, 0x05	; 5
     3b0:	84 81       	ldd	r24, Z+4	; 0x04
     3b2:	95 81       	ldd	r25, Z+5	; 0x05
     3b4:	28 17       	cp	r18, r24
     3b6:	39 07       	cpc	r19, r25
     3b8:	01 f0       	breq	.+0      	; 0x3ba <_ZNK6StringeqERKS_+0x16>
     3ba:	80 e0       	ldi	r24, 0x00	; 0
     3bc:	00 c0       	rjmp	.+0      	; 0x3be <_ZNK6StringeqERKS_+0x1a>
     3be:	60 81       	ld	r22, Z
     3c0:	71 81       	ldd	r23, Z+1	; 0x01
     3c2:	8d 91       	ld	r24, X+
     3c4:	9c 91       	ld	r25, X
     3c6:	0e 94 00 00 	call	0	; 0x0 <_ZNK6String6charAtEj>
     3ca:	9c 01       	movw	r18, r24
     3cc:	80 e0       	ldi	r24, 0x00	; 0
     3ce:	23 2b       	or	r18, r19
     3d0:	01 f4       	brne	.+0      	; 0x3d2 <_ZNK6StringeqERKS_+0x2e>
     3d2:	81 e0       	ldi	r24, 0x01	; 1
     3d4:	90 e0       	ldi	r25, 0x00	; 0
     3d6:	08 95       	ret

000003d8 <_ZNK6String9compareToERKS_>:
     3d8:	fc 01       	movw	r30, r24
     3da:	db 01       	movw	r26, r22
     3dc:	6d 91       	ld	r22, X+
     3de:	7c 91       	ld	r23, X
     3e0:	80 81       	ld	r24, Z
     3e2:	91 81       	ldd	r25, Z+1	; 0x01
     3e4:	0e 94 00 00 	call	0	; 0x0 <_ZNK6String6charAtEj>
     3e8:	08 95       	ret

000003ea <_ZN6String9getBufferEj>:
     3ea:	cf 93       	push	r28
     3ec:	df 93       	push	r29
     3ee:	ec 01       	movw	r28, r24
     3f0:	cb 01       	movw	r24, r22
     3f2:	7b 83       	std	Y+3, r23	; 0x03
     3f4:	6a 83       	std	Y+2, r22	; 0x02
     3f6:	01 96       	adiw	r24, 0x01	; 1
     3f8:	0e 94 00 00 	call	0	; 0x0 <_ZNK6String6charAtEj>
     3fc:	99 83       	std	Y+1, r25	; 0x01
     3fe:	88 83       	st	Y, r24
     400:	00 97       	sbiw	r24, 0x00	; 0
     402:	01 f4       	brne	.+0      	; 0x404 <_ZN6String9getBufferEj+0x1a>
     404:	1b 82       	std	Y+3, r1	; 0x03
     406:	1a 82       	std	Y+2, r1	; 0x02
     408:	1d 82       	std	Y+5, r1	; 0x05
     40a:	1c 82       	std	Y+4, r1	; 0x04
     40c:	df 91       	pop	r29
     40e:	cf 91       	pop	r28
     410:	08 95       	ret

00000412 <_ZN6StringpLERKS_>:
     412:	ef 92       	push	r14
     414:	ff 92       	push	r15
     416:	0f 93       	push	r16
     418:	1f 93       	push	r17
     41a:	cf 93       	push	r28
     41c:	df 93       	push	r29
     41e:	ec 01       	movw	r28, r24
     420:	7b 01       	movw	r14, r22
     422:	fb 01       	movw	r30, r22
     424:	64 81       	ldd	r22, Z+4	; 0x04
     426:	75 81       	ldd	r23, Z+5	; 0x05
     428:	8c 81       	ldd	r24, Y+4	; 0x04
     42a:	9d 81       	ldd	r25, Y+5	; 0x05
     42c:	68 0f       	add	r22, r24
     42e:	79 1f       	adc	r23, r25
     430:	7d 83       	std	Y+5, r23	; 0x05
     432:	6c 83       	std	Y+4, r22	; 0x04
     434:	8a 81       	ldd	r24, Y+2	; 0x02
     436:	9b 81       	ldd	r25, Y+3	; 0x03
     438:	86 17       	cp	r24, r22
     43a:	97 07       	cpc	r25, r23
     43c:	00 f4       	brcc	.+0      	; 0x43e <_ZN6StringpLERKS_+0x2c>
     43e:	08 81       	ld	r16, Y
     440:	19 81       	ldd	r17, Y+1	; 0x01
     442:	ce 01       	movw	r24, r28
     444:	0e 94 00 00 	call	0	; 0x0 <_ZNK6String6charAtEj>
     448:	88 81       	ld	r24, Y
     44a:	99 81       	ldd	r25, Y+1	; 0x01
     44c:	00 97       	sbiw	r24, 0x00	; 0
     44e:	01 f0       	breq	.+0      	; 0x450 <_ZN6StringpLERKS_+0x3e>
     450:	b8 01       	movw	r22, r16
     452:	0e 94 00 00 	call	0	; 0x0 <_ZNK6String6charAtEj>
     456:	c8 01       	movw	r24, r16
     458:	0e 94 00 00 	call	0	; 0x0 <_ZNK6String6charAtEj>
     45c:	88 81       	ld	r24, Y
     45e:	99 81       	ldd	r25, Y+1	; 0x01
     460:	00 97       	sbiw	r24, 0x00	; 0
     462:	01 f0       	breq	.+0      	; 0x464 <_ZN6StringpLERKS_+0x52>
     464:	f7 01       	movw	r30, r14
     466:	60 81       	ld	r22, Z
     468:	71 81       	ldd	r23, Z+1	; 0x01
     46a:	0e 94 00 00 	call	0	; 0x0 <_ZNK6String6charAtEj>
     46e:	ce 01       	movw	r24, r28
     470:	df 91       	pop	r29
     472:	cf 91       	pop	r28
     474:	1f 91       	pop	r17
     476:	0f 91       	pop	r16
     478:	ff 90       	pop	r15
     47a:	ef 90       	pop	r14
     47c:	08 95       	ret

0000047e <_ZN6String6concatERKS_>:
     47e:	0e 94 00 00 	call	0	; 0x0 <_ZNK6String6charAtEj>
     482:	08 95       	ret

00000484 <_ZN6StringaSERKS_>:
     484:	0f 93       	push	r16
     486:	1f 93       	push	r17
     488:	cf 93       	push	r28
     48a:	df 93       	push	r29
     48c:	ec 01       	movw	r28, r24
     48e:	8b 01       	movw	r16, r22
     490:	86 17       	cp	r24, r22
     492:	97 07       	cpc	r25, r23
     494:	01 f0       	breq	.+0      	; 0x496 <_ZN6StringaSERKS_+0x12>
     496:	fb 01       	movw	r30, r22
     498:	24 81       	ldd	r18, Z+4	; 0x04
     49a:	35 81       	ldd	r19, Z+5	; 0x05
     49c:	8c 81       	ldd	r24, Y+4	; 0x04
     49e:	9d 81       	ldd	r25, Y+5	; 0x05
     4a0:	82 17       	cp	r24, r18
     4a2:	93 07       	cpc	r25, r19
     4a4:	00 f4       	brcc	.+0      	; 0x4a6 <_ZN6StringaSERKS_+0x22>
     4a6:	88 81       	ld	r24, Y
     4a8:	99 81       	ldd	r25, Y+1	; 0x01
     4aa:	0e 94 00 00 	call	0	; 0x0 <_ZNK6String6charAtEj>
     4ae:	f8 01       	movw	r30, r16
     4b0:	64 81       	ldd	r22, Z+4	; 0x04
     4b2:	75 81       	ldd	r23, Z+5	; 0x05
     4b4:	ce 01       	movw	r24, r28
     4b6:	0e 94 00 00 	call	0	; 0x0 <_ZNK6String6charAtEj>
     4ba:	28 81       	ld	r18, Y
     4bc:	39 81       	ldd	r19, Y+1	; 0x01
     4be:	21 15       	cp	r18, r1
     4c0:	31 05       	cpc	r19, r1
     4c2:	01 f0       	breq	.+0      	; 0x4c4 <_ZN6StringaSERKS_+0x40>
     4c4:	f8 01       	movw	r30, r16
     4c6:	84 81       	ldd	r24, Z+4	; 0x04
     4c8:	95 81       	ldd	r25, Z+5	; 0x05
     4ca:	9d 83       	std	Y+5, r25	; 0x05
     4cc:	8c 83       	std	Y+4, r24	; 0x04
     4ce:	60 81       	ld	r22, Z
     4d0:	71 81       	ldd	r23, Z+1	; 0x01
     4d2:	c9 01       	movw	r24, r18
     4d4:	0e 94 00 00 	call	0	; 0x0 <_ZNK6String6charAtEj>
     4d8:	ce 01       	movw	r24, r28
     4da:	df 91       	pop	r29
     4dc:	cf 91       	pop	r28
     4de:	1f 91       	pop	r17
     4e0:	0f 91       	pop	r16
     4e2:	08 95       	ret

000004e4 <_ZN6StringC1Eh>:
     4e4:	1f 93       	push	r17
     4e6:	cf 93       	push	r28
     4e8:	df 93       	push	r29
     4ea:	ec 01       	movw	r28, r24
     4ec:	16 2f       	mov	r17, r22
     4ee:	81 e0       	ldi	r24, 0x01	; 1
     4f0:	90 e0       	ldi	r25, 0x00	; 0
     4f2:	9d 83       	std	Y+5, r25	; 0x05
     4f4:	8c 83       	std	Y+4, r24	; 0x04
     4f6:	ce 01       	movw	r24, r28
     4f8:	61 e0       	ldi	r22, 0x01	; 1
     4fa:	70 e0       	ldi	r23, 0x00	; 0
     4fc:	0e 94 00 00 	call	0	; 0x0 <_ZNK6String6charAtEj>
     500:	e8 81       	ld	r30, Y
     502:	f9 81       	ldd	r31, Y+1	; 0x01
     504:	30 97       	sbiw	r30, 0x00	; 0
     506:	01 f0       	breq	.+0      	; 0x508 <_ZN6StringC1Eh+0x24>
     508:	10 83       	st	Z, r17
     50a:	e8 81       	ld	r30, Y
     50c:	f9 81       	ldd	r31, Y+1	; 0x01
     50e:	11 82       	std	Z+1, r1	; 0x01
     510:	df 91       	pop	r29
     512:	cf 91       	pop	r28
     514:	1f 91       	pop	r17
     516:	08 95       	ret

00000518 <_ZN6StringC2Eh>:
     518:	1f 93       	push	r17
     51a:	cf 93       	push	r28
     51c:	df 93       	push	r29
     51e:	ec 01       	movw	r28, r24
     520:	16 2f       	mov	r17, r22
     522:	81 e0       	ldi	r24, 0x01	; 1
     524:	90 e0       	ldi	r25, 0x00	; 0
     526:	9d 83       	std	Y+5, r25	; 0x05
     528:	8c 83       	std	Y+4, r24	; 0x04
     52a:	ce 01       	movw	r24, r28
     52c:	61 e0       	ldi	r22, 0x01	; 1
     52e:	70 e0       	ldi	r23, 0x00	; 0
     530:	0e 94 00 00 	call	0	; 0x0 <_ZNK6String6charAtEj>
     534:	e8 81       	ld	r30, Y
     536:	f9 81       	ldd	r31, Y+1	; 0x01
     538:	30 97       	sbiw	r30, 0x00	; 0
     53a:	01 f0       	breq	.+0      	; 0x53c <_ZN6StringC2Eh+0x24>
     53c:	10 83       	st	Z, r17
     53e:	e8 81       	ld	r30, Y
     540:	f9 81       	ldd	r31, Y+1	; 0x01
     542:	11 82       	std	Z+1, r1	; 0x01
     544:	df 91       	pop	r29
     546:	cf 91       	pop	r28
     548:	1f 91       	pop	r17
     54a:	08 95       	ret

0000054c <_ZN6StringC1Ec>:
     54c:	1f 93       	push	r17
     54e:	cf 93       	push	r28
     550:	df 93       	push	r29
     552:	ec 01       	movw	r28, r24
     554:	16 2f       	mov	r17, r22
     556:	81 e0       	ldi	r24, 0x01	; 1
     558:	90 e0       	ldi	r25, 0x00	; 0
     55a:	9d 83       	std	Y+5, r25	; 0x05
     55c:	8c 83       	std	Y+4, r24	; 0x04
     55e:	ce 01       	movw	r24, r28
     560:	61 e0       	ldi	r22, 0x01	; 1
     562:	70 e0       	ldi	r23, 0x00	; 0
     564:	0e 94 00 00 	call	0	; 0x0 <_ZNK6String6charAtEj>
     568:	e8 81       	ld	r30, Y
     56a:	f9 81       	ldd	r31, Y+1	; 0x01
     56c:	30 97       	sbiw	r30, 0x00	; 0
     56e:	01 f0       	breq	.+0      	; 0x570 <_ZN6StringC1Ec+0x24>
     570:	10 83       	st	Z, r17
     572:	e8 81       	ld	r30, Y
     574:	f9 81       	ldd	r31, Y+1	; 0x01
     576:	11 82       	std	Z+1, r1	; 0x01
     578:	df 91       	pop	r29
     57a:	cf 91       	pop	r28
     57c:	1f 91       	pop	r17
     57e:	08 95       	ret

00000580 <_ZN6StringC2Ec>:
     580:	1f 93       	push	r17
     582:	cf 93       	push	r28
     584:	df 93       	push	r29
     586:	ec 01       	movw	r28, r24
     588:	16 2f       	mov	r17, r22
     58a:	81 e0       	ldi	r24, 0x01	; 1
     58c:	90 e0       	ldi	r25, 0x00	; 0
     58e:	9d 83       	std	Y+5, r25	; 0x05
     590:	8c 83       	std	Y+4, r24	; 0x04
     592:	ce 01       	movw	r24, r28
     594:	61 e0       	ldi	r22, 0x01	; 1
     596:	70 e0       	ldi	r23, 0x00	; 0
     598:	0e 94 00 00 	call	0	; 0x0 <_ZNK6String6charAtEj>
     59c:	e8 81       	ld	r30, Y
     59e:	f9 81       	ldd	r31, Y+1	; 0x01
     5a0:	30 97       	sbiw	r30, 0x00	; 0
     5a2:	01 f0       	breq	.+0      	; 0x5a4 <_ZN6StringC2Ec+0x24>
     5a4:	10 83       	st	Z, r17
     5a6:	e8 81       	ld	r30, Y
     5a8:	f9 81       	ldd	r31, Y+1	; 0x01
     5aa:	11 82       	std	Z+1, r1	; 0x01
     5ac:	df 91       	pop	r29
     5ae:	cf 91       	pop	r28
     5b0:	1f 91       	pop	r17
     5b2:	08 95       	ret

000005b4 <_ZN6StringC1ERKS_>:
     5b4:	0f 93       	push	r16
     5b6:	1f 93       	push	r17
     5b8:	cf 93       	push	r28
     5ba:	df 93       	push	r29
     5bc:	8c 01       	movw	r16, r24
     5be:	eb 01       	movw	r28, r22
     5c0:	6c 81       	ldd	r22, Y+4	; 0x04
     5c2:	7d 81       	ldd	r23, Y+5	; 0x05
     5c4:	fc 01       	movw	r30, r24
     5c6:	75 83       	std	Z+5, r23	; 0x05
     5c8:	64 83       	std	Z+4, r22	; 0x04
     5ca:	0e 94 00 00 	call	0	; 0x0 <_ZNK6String6charAtEj>
     5ce:	f8 01       	movw	r30, r16
     5d0:	80 81       	ld	r24, Z
     5d2:	91 81       	ldd	r25, Z+1	; 0x01
     5d4:	00 97       	sbiw	r24, 0x00	; 0
     5d6:	01 f0       	breq	.+0      	; 0x5d8 <_ZN6StringC1ERKS_+0x24>
     5d8:	68 81       	ld	r22, Y
     5da:	79 81       	ldd	r23, Y+1	; 0x01
     5dc:	0e 94 00 00 	call	0	; 0x0 <_ZNK6String6charAtEj>
     5e0:	df 91       	pop	r29
     5e2:	cf 91       	pop	r28
     5e4:	1f 91       	pop	r17
     5e6:	0f 91       	pop	r16
     5e8:	08 95       	ret

000005ea <_ZN6StringC2ERKS_>:
     5ea:	0f 93       	push	r16
     5ec:	1f 93       	push	r17
     5ee:	cf 93       	push	r28
     5f0:	df 93       	push	r29
     5f2:	8c 01       	movw	r16, r24
     5f4:	eb 01       	movw	r28, r22
     5f6:	6c 81       	ldd	r22, Y+4	; 0x04
     5f8:	7d 81       	ldd	r23, Y+5	; 0x05
     5fa:	fc 01       	movw	r30, r24
     5fc:	75 83       	std	Z+5, r23	; 0x05
     5fe:	64 83       	std	Z+4, r22	; 0x04
     600:	0e 94 00 00 	call	0	; 0x0 <_ZNK6String6charAtEj>
     604:	f8 01       	movw	r30, r16
     606:	80 81       	ld	r24, Z
     608:	91 81       	ldd	r25, Z+1	; 0x01
     60a:	00 97       	sbiw	r24, 0x00	; 0
     60c:	01 f0       	breq	.+0      	; 0x60e <_ZN6StringC2ERKS_+0x24>
     60e:	68 81       	ld	r22, Y
     610:	79 81       	ldd	r23, Y+1	; 0x01
     612:	0e 94 00 00 	call	0	; 0x0 <_ZNK6String6charAtEj>
     616:	df 91       	pop	r29
     618:	cf 91       	pop	r28
     61a:	1f 91       	pop	r17
     61c:	0f 91       	pop	r16
     61e:	08 95       	ret

00000620 <_ZN6StringC1Emi>:
     620:	ef 92       	push	r14
     622:	ff 92       	push	r15
     624:	0f 93       	push	r16
     626:	1f 93       	push	r17
     628:	df 93       	push	r29
     62a:	cf 93       	push	r28
     62c:	cd b7       	in	r28, 0x3d	; 61
     62e:	de b7       	in	r29, 0x3e	; 62
     630:	a1 97       	sbiw	r28, 0x21	; 33
     632:	0f b6       	in	r0, 0x3f	; 63
     634:	f8 94       	cli
     636:	de bf       	out	0x3e, r29	; 62
     638:	0f be       	out	0x3f, r0	; 63
     63a:	cd bf       	out	0x3d, r28	; 61
     63c:	8c 01       	movw	r16, r24
     63e:	cb 01       	movw	r24, r22
     640:	ba 01       	movw	r22, r20
     642:	7e 01       	movw	r14, r28
     644:	08 94       	sec
     646:	e1 1c       	adc	r14, r1
     648:	f1 1c       	adc	r15, r1
     64a:	a7 01       	movw	r20, r14
     64c:	2a e0       	ldi	r18, 0x0A	; 10
     64e:	30 e0       	ldi	r19, 0x00	; 0
     650:	0e 94 00 00 	call	0	; 0x0 <_ZNK6String6charAtEj>
     654:	f7 01       	movw	r30, r14
     656:	01 90       	ld	r0, Z+
     658:	00 20       	and	r0, r0
     65a:	01 f4       	brne	.+0      	; 0x65c <_ZN6StringC1Emi+0x3c>
     65c:	31 97       	sbiw	r30, 0x01	; 1
     65e:	ee 19       	sub	r30, r14
     660:	ff 09       	sbc	r31, r15
     662:	d8 01       	movw	r26, r16
     664:	15 96       	adiw	r26, 0x05	; 5
     666:	fc 93       	st	X, r31
     668:	ee 93       	st	-X, r30
     66a:	14 97       	sbiw	r26, 0x04	; 4
     66c:	c8 01       	movw	r24, r16
     66e:	bf 01       	movw	r22, r30
     670:	0e 94 00 00 	call	0	; 0x0 <_ZNK6String6charAtEj>
     674:	f8 01       	movw	r30, r16
     676:	80 81       	ld	r24, Z
     678:	91 81       	ldd	r25, Z+1	; 0x01
     67a:	00 97       	sbiw	r24, 0x00	; 0
     67c:	01 f0       	breq	.+0      	; 0x67e <_ZN6StringC1Emi+0x5e>
     67e:	b7 01       	movw	r22, r14
     680:	0e 94 00 00 	call	0	; 0x0 <_ZNK6String6charAtEj>
     684:	a1 96       	adiw	r28, 0x21	; 33
     686:	0f b6       	in	r0, 0x3f	; 63
     688:	f8 94       	cli
     68a:	de bf       	out	0x3e, r29	; 62
     68c:	0f be       	out	0x3f, r0	; 63
     68e:	cd bf       	out	0x3d, r28	; 61
     690:	cf 91       	pop	r28
     692:	df 91       	pop	r29
     694:	1f 91       	pop	r17
     696:	0f 91       	pop	r16
     698:	ff 90       	pop	r15
     69a:	ef 90       	pop	r14
     69c:	08 95       	ret

0000069e <_ZN6StringC2Emi>:
     69e:	ef 92       	push	r14
     6a0:	ff 92       	push	r15
     6a2:	0f 93       	push	r16
     6a4:	1f 93       	push	r17
     6a6:	df 93       	push	r29
     6a8:	cf 93       	push	r28
     6aa:	cd b7       	in	r28, 0x3d	; 61
     6ac:	de b7       	in	r29, 0x3e	; 62
     6ae:	a1 97       	sbiw	r28, 0x21	; 33
     6b0:	0f b6       	in	r0, 0x3f	; 63
     6b2:	f8 94       	cli
     6b4:	de bf       	out	0x3e, r29	; 62
     6b6:	0f be       	out	0x3f, r0	; 63
     6b8:	cd bf       	out	0x3d, r28	; 61
     6ba:	8c 01       	movw	r16, r24
     6bc:	cb 01       	movw	r24, r22
     6be:	ba 01       	movw	r22, r20
     6c0:	7e 01       	movw	r14, r28
     6c2:	08 94       	sec
     6c4:	e1 1c       	adc	r14, r1
     6c6:	f1 1c       	adc	r15, r1
     6c8:	a7 01       	movw	r20, r14
     6ca:	2a e0       	ldi	r18, 0x0A	; 10
     6cc:	30 e0       	ldi	r19, 0x00	; 0
     6ce:	0e 94 00 00 	call	0	; 0x0 <_ZNK6String6charAtEj>
     6d2:	f7 01       	movw	r30, r14
     6d4:	01 90       	ld	r0, Z+
     6d6:	00 20       	and	r0, r0
     6d8:	01 f4       	brne	.+0      	; 0x6da <_ZN6StringC2Emi+0x3c>
     6da:	31 97       	sbiw	r30, 0x01	; 1
     6dc:	ee 19       	sub	r30, r14
     6de:	ff 09       	sbc	r31, r15
     6e0:	d8 01       	movw	r26, r16
     6e2:	15 96       	adiw	r26, 0x05	; 5
     6e4:	fc 93       	st	X, r31
     6e6:	ee 93       	st	-X, r30
     6e8:	14 97       	sbiw	r26, 0x04	; 4
     6ea:	c8 01       	movw	r24, r16
     6ec:	bf 01       	movw	r22, r30
     6ee:	0e 94 00 00 	call	0	; 0x0 <_ZNK6String6charAtEj>
     6f2:	f8 01       	movw	r30, r16
     6f4:	80 81       	ld	r24, Z
     6f6:	91 81       	ldd	r25, Z+1	; 0x01
     6f8:	00 97       	sbiw	r24, 0x00	; 0
     6fa:	01 f0       	breq	.+0      	; 0x6fc <_ZN6StringC2Emi+0x5e>
     6fc:	b7 01       	movw	r22, r14
     6fe:	0e 94 00 00 	call	0	; 0x0 <_ZNK6String6charAtEj>
     702:	a1 96       	adiw	r28, 0x21	; 33
     704:	0f b6       	in	r0, 0x3f	; 63
     706:	f8 94       	cli
     708:	de bf       	out	0x3e, r29	; 62
     70a:	0f be       	out	0x3f, r0	; 63
     70c:	cd bf       	out	0x3d, r28	; 61
     70e:	cf 91       	pop	r28
     710:	df 91       	pop	r29
     712:	1f 91       	pop	r17
     714:	0f 91       	pop	r16
     716:	ff 90       	pop	r15
     718:	ef 90       	pop	r14
     71a:	08 95       	ret

0000071c <_ZN6StringC1Eji>:
     71c:	ef 92       	push	r14
     71e:	ff 92       	push	r15
     720:	0f 93       	push	r16
     722:	1f 93       	push	r17
     724:	df 93       	push	r29
     726:	cf 93       	push	r28
     728:	cd b7       	in	r28, 0x3d	; 61
     72a:	de b7       	in	r29, 0x3e	; 62
     72c:	a1 97       	sbiw	r28, 0x21	; 33
     72e:	0f b6       	in	r0, 0x3f	; 63
     730:	f8 94       	cli
     732:	de bf       	out	0x3e, r29	; 62
     734:	0f be       	out	0x3f, r0	; 63
     736:	cd bf       	out	0x3d, r28	; 61
     738:	8c 01       	movw	r16, r24
     73a:	9a 01       	movw	r18, r20
     73c:	80 e0       	ldi	r24, 0x00	; 0
     73e:	90 e0       	ldi	r25, 0x00	; 0
     740:	7e 01       	movw	r14, r28
     742:	08 94       	sec
     744:	e1 1c       	adc	r14, r1
     746:	f1 1c       	adc	r15, r1
     748:	a7 01       	movw	r20, r14
     74a:	0e 94 00 00 	call	0	; 0x0 <_ZNK6String6charAtEj>
     74e:	f7 01       	movw	r30, r14
     750:	01 90       	ld	r0, Z+
     752:	00 20       	and	r0, r0
     754:	01 f4       	brne	.+0      	; 0x756 <_ZN6StringC1Eji+0x3a>
     756:	31 97       	sbiw	r30, 0x01	; 1
     758:	ee 19       	sub	r30, r14
     75a:	ff 09       	sbc	r31, r15
     75c:	d8 01       	movw	r26, r16
     75e:	15 96       	adiw	r26, 0x05	; 5
     760:	fc 93       	st	X, r31
     762:	ee 93       	st	-X, r30
     764:	14 97       	sbiw	r26, 0x04	; 4
     766:	c8 01       	movw	r24, r16
     768:	bf 01       	movw	r22, r30
     76a:	0e 94 00 00 	call	0	; 0x0 <_ZNK6String6charAtEj>
     76e:	f8 01       	movw	r30, r16
     770:	80 81       	ld	r24, Z
     772:	91 81       	ldd	r25, Z+1	; 0x01
     774:	00 97       	sbiw	r24, 0x00	; 0
     776:	01 f0       	breq	.+0      	; 0x778 <_ZN6StringC1Eji+0x5c>
     778:	b7 01       	movw	r22, r14
     77a:	0e 94 00 00 	call	0	; 0x0 <_ZNK6String6charAtEj>
     77e:	a1 96       	adiw	r28, 0x21	; 33
     780:	0f b6       	in	r0, 0x3f	; 63
     782:	f8 94       	cli
     784:	de bf       	out	0x3e, r29	; 62
     786:	0f be       	out	0x3f, r0	; 63
     788:	cd bf       	out	0x3d, r28	; 61
     78a:	cf 91       	pop	r28
     78c:	df 91       	pop	r29
     78e:	1f 91       	pop	r17
     790:	0f 91       	pop	r16
     792:	ff 90       	pop	r15
     794:	ef 90       	pop	r14
     796:	08 95       	ret

00000798 <_ZN6StringC2Eji>:
     798:	ef 92       	push	r14
     79a:	ff 92       	push	r15
     79c:	0f 93       	push	r16
     79e:	1f 93       	push	r17
     7a0:	df 93       	push	r29
     7a2:	cf 93       	push	r28
     7a4:	cd b7       	in	r28, 0x3d	; 61
     7a6:	de b7       	in	r29, 0x3e	; 62
     7a8:	a1 97       	sbiw	r28, 0x21	; 33
     7aa:	0f b6       	in	r0, 0x3f	; 63
     7ac:	f8 94       	cli
     7ae:	de bf       	out	0x3e, r29	; 62
     7b0:	0f be       	out	0x3f, r0	; 63
     7b2:	cd bf       	out	0x3d, r28	; 61
     7b4:	8c 01       	movw	r16, r24
     7b6:	9a 01       	movw	r18, r20
     7b8:	80 e0       	ldi	r24, 0x00	; 0
     7ba:	90 e0       	ldi	r25, 0x00	; 0
     7bc:	7e 01       	movw	r14, r28
     7be:	08 94       	sec
     7c0:	e1 1c       	adc	r14, r1
     7c2:	f1 1c       	adc	r15, r1
     7c4:	a7 01       	movw	r20, r14
     7c6:	0e 94 00 00 	call	0	; 0x0 <_ZNK6String6charAtEj>
     7ca:	f7 01       	movw	r30, r14
     7cc:	01 90       	ld	r0, Z+
     7ce:	00 20       	and	r0, r0
     7d0:	01 f4       	brne	.+0      	; 0x7d2 <_ZN6StringC2Eji+0x3a>
     7d2:	31 97       	sbiw	r30, 0x01	; 1
     7d4:	ee 19       	sub	r30, r14
     7d6:	ff 09       	sbc	r31, r15
     7d8:	d8 01       	movw	r26, r16
     7da:	15 96       	adiw	r26, 0x05	; 5
     7dc:	fc 93       	st	X, r31
     7de:	ee 93       	st	-X, r30
     7e0:	14 97       	sbiw	r26, 0x04	; 4
     7e2:	c8 01       	movw	r24, r16
     7e4:	bf 01       	movw	r22, r30
     7e6:	0e 94 00 00 	call	0	; 0x0 <_ZNK6String6charAtEj>
     7ea:	f8 01       	movw	r30, r16
     7ec:	80 81       	ld	r24, Z
     7ee:	91 81       	ldd	r25, Z+1	; 0x01
     7f0:	00 97       	sbiw	r24, 0x00	; 0
     7f2:	01 f0       	breq	.+0      	; 0x7f4 <_ZN6StringC2Eji+0x5c>
     7f4:	b7 01       	movw	r22, r14
     7f6:	0e 94 00 00 	call	0	; 0x0 <_ZNK6String6charAtEj>
     7fa:	a1 96       	adiw	r28, 0x21	; 33
     7fc:	0f b6       	in	r0, 0x3f	; 63
     7fe:	f8 94       	cli
     800:	de bf       	out	0x3e, r29	; 62
     802:	0f be       	out	0x3f, r0	; 63
     804:	cd bf       	out	0x3d, r28	; 61
     806:	cf 91       	pop	r28
     808:	df 91       	pop	r29
     80a:	1f 91       	pop	r17
     80c:	0f 91       	pop	r16
     80e:	ff 90       	pop	r15
     810:	ef 90       	pop	r14
     812:	08 95       	ret

00000814 <_ZN6StringC1EPKc>:
     814:	0f 93       	push	r16
     816:	1f 93       	push	r17
     818:	cf 93       	push	r28
     81a:	df 93       	push	r29
     81c:	8c 01       	movw	r16, r24
     81e:	eb 01       	movw	r28, r22
     820:	61 15       	cp	r22, r1
     822:	71 05       	cpc	r23, r1
     824:	01 f4       	brne	.+0      	; 0x826 <_ZN6StringC1EPKc+0x12>
     826:	c0 e0       	ldi	r28, 0x00	; 0
     828:	d0 e0       	ldi	r29, 0x00	; 0
     82a:	fe 01       	movw	r30, r28
     82c:	01 90       	ld	r0, Z+
     82e:	00 20       	and	r0, r0
     830:	01 f4       	brne	.+0      	; 0x832 <_ZN6StringC1EPKc+0x1e>
     832:	31 97       	sbiw	r30, 0x01	; 1
     834:	ec 1b       	sub	r30, r28
     836:	fd 0b       	sbc	r31, r29
     838:	d8 01       	movw	r26, r16
     83a:	15 96       	adiw	r26, 0x05	; 5
     83c:	fc 93       	st	X, r31
     83e:	ee 93       	st	-X, r30
     840:	14 97       	sbiw	r26, 0x04	; 4
     842:	c8 01       	movw	r24, r16
     844:	bf 01       	movw	r22, r30
     846:	0e 94 00 00 	call	0	; 0x0 <_ZNK6String6charAtEj>
     84a:	f8 01       	movw	r30, r16
     84c:	80 81       	ld	r24, Z
     84e:	91 81       	ldd	r25, Z+1	; 0x01
     850:	00 97       	sbiw	r24, 0x00	; 0
     852:	01 f0       	breq	.+0      	; 0x854 <_ZN6StringC1EPKc+0x40>
     854:	be 01       	movw	r22, r28
     856:	0e 94 00 00 	call	0	; 0x0 <_ZNK6String6charAtEj>
     85a:	df 91       	pop	r29
     85c:	cf 91       	pop	r28
     85e:	1f 91       	pop	r17
     860:	0f 91       	pop	r16
     862:	08 95       	ret

00000864 <_ZNK6String11toUpperCaseEv>:
     864:	af 92       	push	r10
     866:	bf 92       	push	r11
     868:	cf 92       	push	r12
     86a:	df 92       	push	r13
     86c:	ef 92       	push	r14
     86e:	ff 92       	push	r15
     870:	0f 93       	push	r16
     872:	1f 93       	push	r17
     874:	cf 93       	push	r28
     876:	df 93       	push	r29
     878:	b8 2e       	mov	r11, r24
     87a:	a9 2e       	mov	r10, r25
     87c:	6b 01       	movw	r12, r22
     87e:	c8 2f       	mov	r28, r24
     880:	d9 2f       	mov	r29, r25
     882:	fb 01       	movw	r30, r22
     884:	60 81       	ld	r22, Z
     886:	71 81       	ldd	r23, Z+1	; 0x01
     888:	ce 01       	movw	r24, r28
     88a:	0e 94 00 00 	call	0	; 0x0 <_ZNK6String6charAtEj>
     88e:	ee 24       	eor	r14, r14
     890:	ff 24       	eor	r15, r15
     892:	00 c0       	rjmp	.+0      	; 0x894 <_ZNK6String11toUpperCaseEv+0x30>
     894:	08 81       	ld	r16, Y
     896:	19 81       	ldd	r17, Y+1	; 0x01
     898:	0e 0d       	add	r16, r14
     89a:	1f 1d       	adc	r17, r15
     89c:	f8 01       	movw	r30, r16
     89e:	80 81       	ld	r24, Z
     8a0:	90 e0       	ldi	r25, 0x00	; 0
     8a2:	0e 94 00 00 	call	0	; 0x0 <_ZNK6String6charAtEj>
     8a6:	f8 01       	movw	r30, r16
     8a8:	80 83       	st	Z, r24
     8aa:	08 94       	sec
     8ac:	e1 1c       	adc	r14, r1
     8ae:	f1 1c       	adc	r15, r1
     8b0:	f6 01       	movw	r30, r12
     8b2:	84 81       	ldd	r24, Z+4	; 0x04
     8b4:	95 81       	ldd	r25, Z+5	; 0x05
     8b6:	e8 16       	cp	r14, r24
     8b8:	f9 06       	cpc	r15, r25
     8ba:	00 f0       	brcs	.+0      	; 0x8bc <_ZNK6String11toUpperCaseEv+0x58>
     8bc:	8b 2d       	mov	r24, r11
     8be:	9a 2d       	mov	r25, r10
     8c0:	df 91       	pop	r29
     8c2:	cf 91       	pop	r28
     8c4:	1f 91       	pop	r17
     8c6:	0f 91       	pop	r16
     8c8:	ff 90       	pop	r15
     8ca:	ef 90       	pop	r14
     8cc:	df 90       	pop	r13
     8ce:	cf 90       	pop	r12
     8d0:	bf 90       	pop	r11
     8d2:	af 90       	pop	r10
     8d4:	08 95       	ret

000008d6 <_ZNK6String11toLowerCaseEv>:
     8d6:	af 92       	push	r10
     8d8:	bf 92       	push	r11
     8da:	cf 92       	push	r12
     8dc:	df 92       	push	r13
     8de:	ef 92       	push	r14
     8e0:	ff 92       	push	r15
     8e2:	0f 93       	push	r16
     8e4:	1f 93       	push	r17
     8e6:	cf 93       	push	r28
     8e8:	df 93       	push	r29
     8ea:	b8 2e       	mov	r11, r24
     8ec:	a9 2e       	mov	r10, r25
     8ee:	6b 01       	movw	r12, r22
     8f0:	c8 2f       	mov	r28, r24
     8f2:	d9 2f       	mov	r29, r25
     8f4:	fb 01       	movw	r30, r22
     8f6:	60 81       	ld	r22, Z
     8f8:	71 81       	ldd	r23, Z+1	; 0x01
     8fa:	ce 01       	movw	r24, r28
     8fc:	0e 94 00 00 	call	0	; 0x0 <_ZNK6String6charAtEj>
     900:	ee 24       	eor	r14, r14
     902:	ff 24       	eor	r15, r15
     904:	00 c0       	rjmp	.+0      	; 0x906 <_ZNK6String11toLowerCaseEv+0x30>
     906:	08 81       	ld	r16, Y
     908:	19 81       	ldd	r17, Y+1	; 0x01
     90a:	0e 0d       	add	r16, r14
     90c:	1f 1d       	adc	r17, r15
     90e:	f8 01       	movw	r30, r16
     910:	80 81       	ld	r24, Z
     912:	90 e0       	ldi	r25, 0x00	; 0
     914:	0e 94 00 00 	call	0	; 0x0 <_ZNK6String6charAtEj>
     918:	f8 01       	movw	r30, r16
     91a:	80 83       	st	Z, r24
     91c:	08 94       	sec
     91e:	e1 1c       	adc	r14, r1
     920:	f1 1c       	adc	r15, r1
     922:	f6 01       	movw	r30, r12
     924:	84 81       	ldd	r24, Z+4	; 0x04
     926:	95 81       	ldd	r25, Z+5	; 0x05
     928:	e8 16       	cp	r14, r24
     92a:	f9 06       	cpc	r15, r25
     92c:	00 f0       	brcs	.+0      	; 0x92e <_ZNK6String11toLowerCaseEv+0x58>
     92e:	8b 2d       	mov	r24, r11
     930:	9a 2d       	mov	r25, r10
     932:	df 91       	pop	r29
     934:	cf 91       	pop	r28
     936:	1f 91       	pop	r17
     938:	0f 91       	pop	r16
     93a:	ff 90       	pop	r15
     93c:	ef 90       	pop	r14
     93e:	df 90       	pop	r13
     940:	cf 90       	pop	r12
     942:	bf 90       	pop	r11
     944:	af 90       	pop	r10
     946:	08 95       	ret

00000948 <_ZNK6String16equalsIgnoreCaseERKS_>:
     948:	ef 92       	push	r14
     94a:	ff 92       	push	r15
     94c:	0f 93       	push	r16
     94e:	1f 93       	push	r17
     950:	df 93       	push	r29
     952:	cf 93       	push	r28
     954:	cd b7       	in	r28, 0x3d	; 61
     956:	de b7       	in	r29, 0x3e	; 62
     958:	2c 97       	sbiw	r28, 0x0c	; 12
     95a:	0f b6       	in	r0, 0x3f	; 63
     95c:	f8 94       	cli
     95e:	de bf       	out	0x3e, r29	; 62
     960:	0f be       	out	0x3f, r0	; 63
     962:	cd bf       	out	0x3d, r28	; 61
     964:	fc 01       	movw	r30, r24
     966:	7b 01       	movw	r14, r22
     968:	86 17       	cp	r24, r22
     96a:	97 07       	cpc	r25, r23
     96c:	01 f4       	brne	.+0      	; 0x96e <_ZNK6String16equalsIgnoreCaseERKS_+0x26>
     96e:	01 e0       	ldi	r16, 0x01	; 1
     970:	00 c0       	rjmp	.+0      	; 0x972 <_ZNK6String16equalsIgnoreCaseERKS_+0x2a>
     972:	24 81       	ldd	r18, Z+4	; 0x04
     974:	35 81       	ldd	r19, Z+5	; 0x05
     976:	db 01       	movw	r26, r22
     978:	14 96       	adiw	r26, 0x04	; 4
     97a:	8d 91       	ld	r24, X+
     97c:	9c 91       	ld	r25, X
     97e:	15 97       	sbiw	r26, 0x05	; 5
     980:	28 17       	cp	r18, r24
     982:	39 07       	cpc	r19, r25
     984:	01 f0       	breq	.+0      	; 0x986 <_ZNK6String16equalsIgnoreCaseERKS_+0x3e>
     986:	00 e0       	ldi	r16, 0x00	; 0
     988:	00 c0       	rjmp	.+0      	; 0x98a <_ZNK6String16equalsIgnoreCaseERKS_+0x42>
     98a:	ce 01       	movw	r24, r28
     98c:	01 96       	adiw	r24, 0x01	; 1
     98e:	bf 01       	movw	r22, r30
     990:	0e 94 00 00 	call	0	; 0x0 <_ZNK6String6charAtEj>
     994:	09 81       	ldd	r16, Y+1	; 0x01
     996:	1a 81       	ldd	r17, Y+2	; 0x02
     998:	ce 01       	movw	r24, r28
     99a:	07 96       	adiw	r24, 0x07	; 7
     99c:	b7 01       	movw	r22, r14
     99e:	0e 94 00 00 	call	0	; 0x0 <_ZNK6String6charAtEj>
     9a2:	6f 81       	ldd	r22, Y+7	; 0x07
     9a4:	78 85       	ldd	r23, Y+8	; 0x08
     9a6:	c8 01       	movw	r24, r16
     9a8:	0e 94 00 00 	call	0	; 0x0 <_ZNK6String6charAtEj>
     9ac:	00 e0       	ldi	r16, 0x00	; 0
     9ae:	00 97       	sbiw	r24, 0x00	; 0
     9b0:	01 f4       	brne	.+0      	; 0x9b2 <_ZNK6String16equalsIgnoreCaseERKS_+0x6a>
     9b2:	01 e0       	ldi	r16, 0x01	; 1
     9b4:	ce 01       	movw	r24, r28
     9b6:	07 96       	adiw	r24, 0x07	; 7
     9b8:	0e 94 00 00 	call	0	; 0x0 <_ZNK6String6charAtEj>
     9bc:	ce 01       	movw	r24, r28
     9be:	01 96       	adiw	r24, 0x01	; 1
     9c0:	0e 94 00 00 	call	0	; 0x0 <_ZNK6String6charAtEj>
     9c4:	80 2f       	mov	r24, r16
     9c6:	2c 96       	adiw	r28, 0x0c	; 12
     9c8:	0f b6       	in	r0, 0x3f	; 63
     9ca:	f8 94       	cli
     9cc:	de bf       	out	0x3e, r29	; 62
     9ce:	0f be       	out	0x3f, r0	; 63
     9d0:	cd bf       	out	0x3d, r28	; 61
     9d2:	cf 91       	pop	r28
     9d4:	df 91       	pop	r29
     9d6:	1f 91       	pop	r17
     9d8:	0f 91       	pop	r16
     9da:	ff 90       	pop	r15
     9dc:	ef 90       	pop	r14
     9de:	08 95       	ret

000009e0 <_ZNK6String9substringEjj>:
     9e0:	cf 92       	push	r12
     9e2:	df 92       	push	r13
     9e4:	ef 92       	push	r14
     9e6:	ff 92       	push	r15
     9e8:	1f 93       	push	r17
     9ea:	cf 93       	push	r28
     9ec:	df 93       	push	r29
     9ee:	6c 01       	movw	r12, r24
     9f0:	7b 01       	movw	r14, r22
     9f2:	24 17       	cp	r18, r20
     9f4:	35 07       	cpc	r19, r21
     9f6:	00 f4       	brcc	.+0      	; 0x9f8 <_ZNK6String9substringEjj+0x18>
     9f8:	ca 01       	movw	r24, r20
     9fa:	a9 01       	movw	r20, r18
     9fc:	9c 01       	movw	r18, r24
     9fe:	d7 01       	movw	r26, r14
     a00:	14 96       	adiw	r26, 0x04	; 4
     a02:	8d 91       	ld	r24, X+
     a04:	9c 91       	ld	r25, X
     a06:	15 97       	sbiw	r26, 0x05	; 5
     a08:	e9 01       	movw	r28, r18
     a0a:	82 17       	cp	r24, r18
     a0c:	93 07       	cpc	r25, r19
     a0e:	00 f4       	brcc	.+0      	; 0xa10 <_ZNK6String9substringEjj+0x30>
     a10:	ec 01       	movw	r28, r24
     a12:	d7 01       	movw	r26, r14
     a14:	ed 91       	ld	r30, X+
     a16:	fc 91       	ld	r31, X
     a18:	11 97       	sbiw	r26, 0x01	; 1
     a1a:	ec 0f       	add	r30, r28
     a1c:	fd 1f       	adc	r31, r29
     a1e:	10 81       	ld	r17, Z
     a20:	10 82       	st	Z, r1
     a22:	6d 91       	ld	r22, X+
     a24:	7c 91       	ld	r23, X
     a26:	64 0f       	add	r22, r20
     a28:	75 1f       	adc	r23, r21
     a2a:	c6 01       	movw	r24, r12
     a2c:	0e 94 00 00 	call	0	; 0x0 <_ZNK6String6charAtEj>
     a30:	d7 01       	movw	r26, r14
     a32:	ed 91       	ld	r30, X+
     a34:	fc 91       	ld	r31, X
     a36:	ec 0f       	add	r30, r28
     a38:	fd 1f       	adc	r31, r29
     a3a:	10 83       	st	Z, r17
     a3c:	c6 01       	movw	r24, r12
     a3e:	df 91       	pop	r29
     a40:	cf 91       	pop	r28
     a42:	1f 91       	pop	r17
     a44:	ff 90       	pop	r15
     a46:	ef 90       	pop	r14
     a48:	df 90       	pop	r13
     a4a:	cf 90       	pop	r12
     a4c:	08 95       	ret

00000a4e <_ZNK6String9substringEj>:
     a4e:	0f 93       	push	r16
     a50:	1f 93       	push	r17
     a52:	8c 01       	movw	r16, r24
     a54:	fb 01       	movw	r30, r22
     a56:	24 81       	ldd	r18, Z+4	; 0x04
     a58:	35 81       	ldd	r19, Z+5	; 0x05
     a5a:	0e 94 00 00 	call	0	; 0x0 <_ZNK6String6charAtEj>
     a5e:	c8 01       	movw	r24, r16
     a60:	1f 91       	pop	r17
     a62:	0f 91       	pop	r16
     a64:	08 95       	ret

00000a66 <_ZNK6String11lastIndexOfERKS_j>:
     a66:	8f 92       	push	r8
     a68:	9f 92       	push	r9
     a6a:	af 92       	push	r10
     a6c:	bf 92       	push	r11
     a6e:	cf 92       	push	r12
     a70:	df 92       	push	r13
     a72:	ef 92       	push	r14
     a74:	ff 92       	push	r15
     a76:	0f 93       	push	r16
     a78:	1f 93       	push	r17
     a7a:	df 93       	push	r29
     a7c:	cf 93       	push	r28
     a7e:	00 d0       	rcall	.+0      	; 0xa80 <_ZNK6String11lastIndexOfERKS_j+0x1a>
     a80:	00 d0       	rcall	.+0      	; 0xa82 <_ZNK6String11lastIndexOfERKS_j+0x1c>
     a82:	00 d0       	rcall	.+0      	; 0xa84 <_ZNK6String11lastIndexOfERKS_j+0x1e>
     a84:	cd b7       	in	r28, 0x3d	; 61
     a86:	de b7       	in	r29, 0x3e	; 62
     a88:	5c 01       	movw	r10, r24
     a8a:	6b 01       	movw	r12, r22
     a8c:	db 01       	movw	r26, r22
     a8e:	14 96       	adiw	r26, 0x04	; 4
     a90:	8d 91       	ld	r24, X+
     a92:	9c 91       	ld	r25, X
     a94:	15 97       	sbiw	r26, 0x05	; 5
     a96:	00 97       	sbiw	r24, 0x00	; 0
     a98:	01 f0       	breq	.+0      	; 0xa9a <_ZNK6String11lastIndexOfERKS_j+0x34>
     a9a:	01 97       	sbiw	r24, 0x01	; 1
     a9c:	48 17       	cp	r20, r24
     a9e:	59 07       	cpc	r21, r25
     aa0:	00 f0       	brcs	.+0      	; 0xaa2 <_ZNK6String11lastIndexOfERKS_j+0x3c>
     aa2:	f5 01       	movw	r30, r10
     aa4:	84 81       	ldd	r24, Z+4	; 0x04
     aa6:	95 81       	ldd	r25, Z+5	; 0x05
     aa8:	48 17       	cp	r20, r24
     aaa:	59 07       	cpc	r21, r25
     aac:	00 f4       	brcc	.+0      	; 0xaae <_ZNK6String11lastIndexOfERKS_j+0x48>
     aae:	ed 91       	ld	r30, X+
     ab0:	fc 91       	ld	r31, X
     ab2:	00 81       	ld	r16, Z
     ab4:	7a 01       	movw	r14, r20
     ab6:	4e 01       	movw	r8, r28
     ab8:	08 94       	sec
     aba:	81 1c       	adc	r8, r1
     abc:	91 1c       	adc	r9, r1
     abe:	00 c0       	rjmp	.+0      	; 0xac0 <_ZNK6String11lastIndexOfERKS_j+0x5a>
     ac0:	d5 01       	movw	r26, r10
     ac2:	ed 91       	ld	r30, X+
     ac4:	fc 91       	ld	r31, X
     ac6:	ee 0d       	add	r30, r14
     ac8:	ff 1d       	adc	r31, r15
     aca:	80 81       	ld	r24, Z
     acc:	80 17       	cp	r24, r16
     ace:	01 f4       	brne	.+0      	; 0xad0 <_ZNK6String11lastIndexOfERKS_j+0x6a>
     ad0:	f6 01       	movw	r30, r12
     ad2:	24 81       	ldd	r18, Z+4	; 0x04
     ad4:	35 81       	ldd	r19, Z+5	; 0x05
     ad6:	2e 0d       	add	r18, r14
     ad8:	3f 1d       	adc	r19, r15
     ada:	c4 01       	movw	r24, r8
     adc:	b5 01       	movw	r22, r10
     ade:	a7 01       	movw	r20, r14
     ae0:	0e 94 00 00 	call	0	; 0x0 <_ZNK6String6charAtEj>
     ae4:	c4 01       	movw	r24, r8
     ae6:	b6 01       	movw	r22, r12
     ae8:	0e 94 00 00 	call	0	; 0x0 <_ZNK6String6charAtEj>
     aec:	18 2f       	mov	r17, r24
     aee:	c4 01       	movw	r24, r8
     af0:	0e 94 00 00 	call	0	; 0x0 <_ZNK6String6charAtEj>
     af4:	11 23       	and	r17, r17
     af6:	01 f4       	brne	.+0      	; 0xaf8 <_ZNK6String11lastIndexOfERKS_j+0x92>
     af8:	08 94       	sec
     afa:	e1 08       	sbc	r14, r1
     afc:	f1 08       	sbc	r15, r1
     afe:	f7 fe       	sbrs	r15, 7
     b00:	00 c0       	rjmp	.+0      	; 0xb02 <_ZNK6String11lastIndexOfERKS_j+0x9c>
     b02:	ee 24       	eor	r14, r14
     b04:	ea 94       	dec	r14
     b06:	fe 2c       	mov	r15, r14
     b08:	c7 01       	movw	r24, r14
     b0a:	26 96       	adiw	r28, 0x06	; 6
     b0c:	0f b6       	in	r0, 0x3f	; 63
     b0e:	f8 94       	cli
     b10:	de bf       	out	0x3e, r29	; 62
     b12:	0f be       	out	0x3f, r0	; 63
     b14:	cd bf       	out	0x3d, r28	; 61
     b16:	cf 91       	pop	r28
     b18:	df 91       	pop	r29
     b1a:	1f 91       	pop	r17
     b1c:	0f 91       	pop	r16
     b1e:	ff 90       	pop	r15
     b20:	ef 90       	pop	r14
     b22:	df 90       	pop	r13
     b24:	cf 90       	pop	r12
     b26:	bf 90       	pop	r11
     b28:	af 90       	pop	r10
     b2a:	9f 90       	pop	r9
     b2c:	8f 90       	pop	r8
     b2e:	08 95       	ret

00000b30 <_ZNK6String11lastIndexOfERKS_>:
     b30:	fc 01       	movw	r30, r24
     b32:	db 01       	movw	r26, r22
     b34:	44 81       	ldd	r20, Z+4	; 0x04
     b36:	55 81       	ldd	r21, Z+5	; 0x05
     b38:	14 96       	adiw	r26, 0x04	; 4
     b3a:	8d 91       	ld	r24, X+
     b3c:	9c 91       	ld	r25, X
     b3e:	15 97       	sbiw	r26, 0x05	; 5
     b40:	48 1b       	sub	r20, r24
     b42:	59 0b       	sbc	r21, r25
     b44:	cf 01       	movw	r24, r30
     b46:	0e 94 00 00 	call	0	; 0x0 <_ZNK6String6charAtEj>
     b4a:	08 95       	ret

00000b4c <_ZNK6String4trimEv>:
     b4c:	af 92       	push	r10
     b4e:	bf 92       	push	r11
     b50:	cf 92       	push	r12
     b52:	df 92       	push	r13
     b54:	ef 92       	push	r14
     b56:	ff 92       	push	r15
     b58:	0f 93       	push	r16
     b5a:	1f 93       	push	r17
     b5c:	df 93       	push	r29
     b5e:	cf 93       	push	r28
     b60:	00 d0       	rcall	.+0      	; 0xb62 <_ZNK6String4trimEv+0x16>
     b62:	00 d0       	rcall	.+0      	; 0xb64 <_ZNK6String4trimEv+0x18>
     b64:	00 d0       	rcall	.+0      	; 0xb66 <_ZNK6String4trimEv+0x1a>
     b66:	cd b7       	in	r28, 0x3d	; 61
     b68:	de b7       	in	r29, 0x3e	; 62
     b6a:	5c 01       	movw	r10, r24
     b6c:	8b 01       	movw	r16, r22
     b6e:	db 01       	movw	r26, r22
     b70:	6d 91       	ld	r22, X+
     b72:	7c 91       	ld	r23, X
     b74:	61 15       	cp	r22, r1
     b76:	71 05       	cpc	r23, r1
     b78:	01 f4       	brne	.+0      	; 0xb7a <_ZNK6String4trimEv+0x2e>
     b7a:	b8 01       	movw	r22, r16
     b7c:	0e 94 00 00 	call	0	; 0x0 <_ZNK6String6charAtEj>
     b80:	00 c0       	rjmp	.+0      	; 0xb82 <_ZNK6String4trimEv+0x36>
     b82:	ce 01       	movw	r24, r28
     b84:	01 96       	adiw	r24, 0x01	; 1
     b86:	0e 94 00 00 	call	0	; 0x0 <_ZNK6String6charAtEj>
     b8a:	f8 01       	movw	r30, r16
     b8c:	e4 80       	ldd	r14, Z+4	; 0x04
     b8e:	f5 80       	ldd	r15, Z+5	; 0x05
     b90:	cc 24       	eor	r12, r12
     b92:	dd 24       	eor	r13, r13
     b94:	00 c0       	rjmp	.+0      	; 0xb96 <_ZNK6String4trimEv+0x4a>
     b96:	d8 01       	movw	r26, r16
     b98:	ed 91       	ld	r30, X+
     b9a:	fc 91       	ld	r31, X
     b9c:	ec 0d       	add	r30, r12
     b9e:	fd 1d       	adc	r31, r13
     ba0:	80 81       	ld	r24, Z
     ba2:	90 e0       	ldi	r25, 0x00	; 0
     ba4:	0e 94 00 00 	call	0	; 0x0 <_ZNK6String6charAtEj>
     ba8:	89 2b       	or	r24, r25
     baa:	01 f0       	breq	.+0      	; 0xbac <_ZNK6String4trimEv+0x60>
     bac:	08 94       	sec
     bae:	c1 1c       	adc	r12, r1
     bb0:	d1 1c       	adc	r13, r1
     bb2:	ce 14       	cp	r12, r14
     bb4:	df 04       	cpc	r13, r15
     bb6:	00 f0       	brcs	.+0      	; 0xbb8 <_ZNK6String4trimEv+0x6c>
     bb8:	ed 80       	ldd	r14, Y+5	; 0x05
     bba:	fe 80       	ldd	r15, Y+6	; 0x06
     bbc:	00 c0       	rjmp	.+0      	; 0xbbe <_ZNK6String4trimEv+0x72>
     bbe:	d8 01       	movw	r26, r16
     bc0:	ed 91       	ld	r30, X+
     bc2:	fc 91       	ld	r31, X
     bc4:	ee 0d       	add	r30, r14
     bc6:	ff 1d       	adc	r31, r15
     bc8:	80 81       	ld	r24, Z
     bca:	90 e0       	ldi	r25, 0x00	; 0
     bcc:	0e 94 00 00 	call	0	; 0x0 <_ZNK6String6charAtEj>
     bd0:	89 2b       	or	r24, r25
     bd2:	01 f0       	breq	.+0      	; 0xbd4 <_ZNK6String4trimEv+0x88>
     bd4:	08 94       	sec
     bd6:	e1 08       	sbc	r14, r1
     bd8:	f1 08       	sbc	r15, r1
     bda:	ce 14       	cp	r12, r14
     bdc:	df 04       	cpc	r13, r15
     bde:	00 f0       	brcs	.+0      	; 0xbe0 <_ZNK6String4trimEv+0x94>
     be0:	08 94       	sec
     be2:	e1 1c       	adc	r14, r1
     be4:	f1 1c       	adc	r15, r1
     be6:	c5 01       	movw	r24, r10
     be8:	8e 01       	movw	r16, r28
     bea:	0f 5f       	subi	r16, 0xFF	; 255
     bec:	1f 4f       	sbci	r17, 0xFF	; 255
     bee:	b8 01       	movw	r22, r16
     bf0:	a6 01       	movw	r20, r12
     bf2:	97 01       	movw	r18, r14
     bf4:	0e 94 00 00 	call	0	; 0x0 <_ZNK6String6charAtEj>
     bf8:	c8 01       	movw	r24, r16
     bfa:	0e 94 00 00 	call	0	; 0x0 <_ZNK6String6charAtEj>
     bfe:	c5 01       	movw	r24, r10
     c00:	26 96       	adiw	r28, 0x06	; 6
     c02:	0f b6       	in	r0, 0x3f	; 63
     c04:	f8 94       	cli
     c06:	de bf       	out	0x3e, r29	; 62
     c08:	0f be       	out	0x3f, r0	; 63
     c0a:	cd bf       	out	0x3d, r28	; 61
     c0c:	cf 91       	pop	r28
     c0e:	df 91       	pop	r29
     c10:	1f 91       	pop	r17
     c12:	0f 91       	pop	r16
     c14:	ff 90       	pop	r15
     c16:	ef 90       	pop	r14
     c18:	df 90       	pop	r13
     c1a:	cf 90       	pop	r12
     c1c:	bf 90       	pop	r11
     c1e:	af 90       	pop	r10
     c20:	08 95       	ret

00000c22 <_ZN6String7replaceERKS_S1_>:
     c22:	2f 92       	push	r2
     c24:	3f 92       	push	r3
     c26:	4f 92       	push	r4
     c28:	5f 92       	push	r5
     c2a:	6f 92       	push	r6
     c2c:	7f 92       	push	r7
     c2e:	8f 92       	push	r8
     c30:	9f 92       	push	r9
     c32:	af 92       	push	r10
     c34:	bf 92       	push	r11
     c36:	cf 92       	push	r12
     c38:	df 92       	push	r13
     c3a:	ef 92       	push	r14
     c3c:	ff 92       	push	r15
     c3e:	0f 93       	push	r16
     c40:	1f 93       	push	r17
     c42:	df 93       	push	r29
     c44:	cf 93       	push	r28
     c46:	cd b7       	in	r28, 0x3d	; 61
     c48:	de b7       	in	r29, 0x3e	; 62
     c4a:	68 97       	sbiw	r28, 0x18	; 24
     c4c:	0f b6       	in	r0, 0x3f	; 63
     c4e:	f8 94       	cli
     c50:	de bf       	out	0x3e, r29	; 62
     c52:	0f be       	out	0x3f, r0	; 63
     c54:	cd bf       	out	0x3d, r28	; 61
     c56:	3c 01       	movw	r6, r24
     c58:	fb 01       	movw	r30, r22
     c5a:	2a 01       	movw	r4, r20
     c5c:	19 01       	movw	r2, r18
     c5e:	60 81       	ld	r22, Z
     c60:	71 81       	ldd	r23, Z+1	; 0x01
     c62:	61 15       	cp	r22, r1
     c64:	71 05       	cpc	r23, r1
     c66:	01 f4       	brne	.+0      	; 0xc68 <_ZN6String7replaceERKS_S1_+0x46>
     c68:	bf 01       	movw	r22, r30
     c6a:	0e 94 00 00 	call	0	; 0x0 <_ZNK6String6charAtEj>
     c6e:	00 c0       	rjmp	.+0      	; 0xc70 <_ZN6String7replaceERKS_S1_+0x4e>
     c70:	7e 01       	movw	r14, r28
     c72:	08 94       	sec
     c74:	e1 1c       	adc	r14, r1
     c76:	f1 1c       	adc	r15, r1
     c78:	c7 01       	movw	r24, r14
     c7a:	0e 94 00 00 	call	0	; 0x0 <_ZNK6String6charAtEj>
     c7e:	8e 01       	movw	r16, r28
     c80:	09 5f       	subi	r16, 0xF9	; 249
     c82:	1f 4f       	sbci	r17, 0xFF	; 255
     c84:	c8 01       	movw	r24, r16
     c86:	60 e0       	ldi	r22, 0x00	; 0
     c88:	70 e0       	ldi	r23, 0x00	; 0
     c8a:	0e 94 00 00 	call	0	; 0x0 <_ZNK6String6charAtEj>
     c8e:	d0 2e       	mov	r13, r16
     c90:	c1 2e       	mov	r12, r17
     c92:	3d e0       	ldi	r19, 0x0D	; 13
     c94:	83 2e       	mov	r8, r19
     c96:	91 2c       	mov	r9, r1
     c98:	8c 0e       	add	r8, r28
     c9a:	9d 1e       	adc	r9, r29
     c9c:	23 e1       	ldi	r18, 0x13	; 19
     c9e:	a2 2e       	mov	r10, r18
     ca0:	b1 2c       	mov	r11, r1
     ca2:	ac 0e       	add	r10, r28
     ca4:	bd 1e       	adc	r11, r29
     ca6:	00 c0       	rjmp	.+0      	; 0xca8 <_ZN6String7replaceERKS_S1_+0x86>
     ca8:	c4 01       	movw	r24, r8
     caa:	b7 01       	movw	r22, r14
     cac:	40 e0       	ldi	r20, 0x00	; 0
     cae:	50 e0       	ldi	r21, 0x00	; 0
     cb0:	98 01       	movw	r18, r16
     cb2:	0e 94 00 00 	call	0	; 0x0 <_ZNK6String6charAtEj>
     cb6:	8d 2d       	mov	r24, r13
     cb8:	9c 2d       	mov	r25, r12
     cba:	b4 01       	movw	r22, r8
     cbc:	0e 94 00 00 	call	0	; 0x0 <_ZNK6String6charAtEj>
     cc0:	c4 01       	movw	r24, r8
     cc2:	0e 94 00 00 	call	0	; 0x0 <_ZNK6String6charAtEj>
     cc6:	8d 2d       	mov	r24, r13
     cc8:	9c 2d       	mov	r25, r12
     cca:	b1 01       	movw	r22, r2
     ccc:	0e 94 00 00 	call	0	; 0x0 <_ZNK6String6charAtEj>
     cd0:	f2 01       	movw	r30, r4
     cd2:	44 81       	ldd	r20, Z+4	; 0x04
     cd4:	55 81       	ldd	r21, Z+5	; 0x05
     cd6:	40 0f       	add	r20, r16
     cd8:	51 1f       	adc	r21, r17
     cda:	c5 01       	movw	r24, r10
     cdc:	b7 01       	movw	r22, r14
     cde:	0e 94 00 00 	call	0	; 0x0 <_ZNK6String6charAtEj>
     ce2:	c7 01       	movw	r24, r14
     ce4:	b5 01       	movw	r22, r10
     ce6:	0e 94 00 00 	call	0	; 0x0 <_ZNK6String6charAtEj>
     cea:	c5 01       	movw	r24, r10
     cec:	0e 94 00 00 	call	0	; 0x0 <_ZNK6String6charAtEj>
     cf0:	c7 01       	movw	r24, r14
     cf2:	b2 01       	movw	r22, r4
     cf4:	0e 94 00 00 	call	0	; 0x0 <_ZNK6String6charAtEj>
     cf8:	8c 01       	movw	r16, r24
     cfa:	ff ef       	ldi	r31, 0xFF	; 255
     cfc:	8f 3f       	cpi	r24, 0xFF	; 255
     cfe:	9f 07       	cpc	r25, r31
     d00:	01 f4       	brne	.+0      	; 0xd02 <_ZN6String7replaceERKS_S1_+0xe0>
     d02:	8d 2d       	mov	r24, r13
     d04:	9c 2d       	mov	r25, r12
     d06:	b7 01       	movw	r22, r14
     d08:	0e 94 00 00 	call	0	; 0x0 <_ZNK6String6charAtEj>
     d0c:	c3 01       	movw	r24, r6
     d0e:	6d 2d       	mov	r22, r13
     d10:	7c 2d       	mov	r23, r12
     d12:	0e 94 00 00 	call	0	; 0x0 <_ZNK6String6charAtEj>
     d16:	8d 2d       	mov	r24, r13
     d18:	9c 2d       	mov	r25, r12
     d1a:	0e 94 00 00 	call	0	; 0x0 <_ZNK6String6charAtEj>
     d1e:	c7 01       	movw	r24, r14
     d20:	0e 94 00 00 	call	0	; 0x0 <_ZNK6String6charAtEj>
     d24:	c3 01       	movw	r24, r6
     d26:	68 96       	adiw	r28, 0x18	; 24
     d28:	0f b6       	in	r0, 0x3f	; 63
     d2a:	f8 94       	cli
     d2c:	de bf       	out	0x3e, r29	; 62
     d2e:	0f be       	out	0x3f, r0	; 63
     d30:	cd bf       	out	0x3d, r28	; 61
     d32:	cf 91       	pop	r28
     d34:	df 91       	pop	r29
     d36:	1f 91       	pop	r17
     d38:	0f 91       	pop	r16
     d3a:	ff 90       	pop	r15
     d3c:	ef 90       	pop	r14
     d3e:	df 90       	pop	r13
     d40:	cf 90       	pop	r12
     d42:	bf 90       	pop	r11
     d44:	af 90       	pop	r10
     d46:	9f 90       	pop	r9
     d48:	8f 90       	pop	r8
     d4a:	7f 90       	pop	r7
     d4c:	6f 90       	pop	r6
     d4e:	5f 90       	pop	r5
     d50:	4f 90       	pop	r4
     d52:	3f 90       	pop	r3
     d54:	2f 90       	pop	r2
     d56:	08 95       	ret

00000d58 <_ZN6String7replaceEcc>:
     d58:	ef 92       	push	r14
     d5a:	ff 92       	push	r15
     d5c:	0f 93       	push	r16
     d5e:	1f 93       	push	r17
     d60:	df 93       	push	r29
     d62:	cf 93       	push	r28
     d64:	00 d0       	rcall	.+0      	; 0xd66 <_ZN6String7replaceEcc+0xe>
     d66:	00 d0       	rcall	.+0      	; 0xd68 <_ZN6String7replaceEcc+0x10>
     d68:	00 d0       	rcall	.+0      	; 0xd6a <_ZN6String7replaceEcc+0x12>
     d6a:	cd b7       	in	r28, 0x3d	; 61
     d6c:	de b7       	in	r29, 0x3e	; 62
     d6e:	7c 01       	movw	r14, r24
     d70:	fb 01       	movw	r30, r22
     d72:	14 2f       	mov	r17, r20
     d74:	02 2f       	mov	r16, r18
     d76:	60 81       	ld	r22, Z
     d78:	71 81       	ldd	r23, Z+1	; 0x01
     d7a:	61 15       	cp	r22, r1
     d7c:	71 05       	cpc	r23, r1
     d7e:	01 f4       	brne	.+0      	; 0xd80 <_ZN6String7replaceEcc+0x28>
     d80:	bf 01       	movw	r22, r30
     d82:	0e 94 00 00 	call	0	; 0x0 <_ZNK6String6charAtEj>
     d86:	00 c0       	rjmp	.+0      	; 0xd88 <_ZN6String7replaceEcc+0x30>
     d88:	ce 01       	movw	r24, r28
     d8a:	01 96       	adiw	r24, 0x01	; 1
     d8c:	0e 94 00 00 	call	0	; 0x0 <_ZNK6String6charAtEj>
     d90:	89 81       	ldd	r24, Y+1	; 0x01
     d92:	9a 81       	ldd	r25, Y+2	; 0x02
     d94:	00 c0       	rjmp	.+0      	; 0xd96 <_ZN6String7replaceEcc+0x3e>
     d96:	00 83       	st	Z, r16
     d98:	61 2f       	mov	r22, r17
     d9a:	70 e0       	ldi	r23, 0x00	; 0
     d9c:	0e 94 00 00 	call	0	; 0x0 <_ZNK6String6charAtEj>
     da0:	fc 01       	movw	r30, r24
     da2:	00 97       	sbiw	r24, 0x00	; 0
     da4:	01 f4       	brne	.+0      	; 0xda6 <_ZN6String7replaceEcc+0x4e>
     da6:	c7 01       	movw	r24, r14
     da8:	8e 01       	movw	r16, r28
     daa:	0f 5f       	subi	r16, 0xFF	; 255
     dac:	1f 4f       	sbci	r17, 0xFF	; 255
     dae:	b8 01       	movw	r22, r16
     db0:	0e 94 00 00 	call	0	; 0x0 <_ZNK6String6charAtEj>
     db4:	c8 01       	movw	r24, r16
     db6:	0e 94 00 00 	call	0	; 0x0 <_ZNK6String6charAtEj>
     dba:	c7 01       	movw	r24, r14
     dbc:	26 96       	adiw	r28, 0x06	; 6
     dbe:	0f b6       	in	r0, 0x3f	; 63
     dc0:	f8 94       	cli
     dc2:	de bf       	out	0x3e, r29	; 62
     dc4:	0f be       	out	0x3f, r0	; 63
     dc6:	cd bf       	out	0x3d, r28	; 61
     dc8:	cf 91       	pop	r28
     dca:	df 91       	pop	r29
     dcc:	1f 91       	pop	r17
     dce:	0f 91       	pop	r16
     dd0:	ff 90       	pop	r15
     dd2:	ef 90       	pop	r14
     dd4:	08 95       	ret

00000dd6 <_ZN6StringC2EPKc>:
     dd6:	0f 93       	push	r16
     dd8:	1f 93       	push	r17
     dda:	cf 93       	push	r28
     ddc:	df 93       	push	r29
     dde:	8c 01       	movw	r16, r24
     de0:	eb 01       	movw	r28, r22
     de2:	61 15       	cp	r22, r1
     de4:	71 05       	cpc	r23, r1
     de6:	01 f4       	brne	.+0      	; 0xde8 <_ZN6StringC2EPKc+0x12>
     de8:	c0 e0       	ldi	r28, 0x00	; 0
     dea:	d0 e0       	ldi	r29, 0x00	; 0
     dec:	fe 01       	movw	r30, r28
     dee:	01 90       	ld	r0, Z+
     df0:	00 20       	and	r0, r0
     df2:	01 f4       	brne	.+0      	; 0xdf4 <_ZN6StringC2EPKc+0x1e>
     df4:	31 97       	sbiw	r30, 0x01	; 1
     df6:	ec 1b       	sub	r30, r28
     df8:	fd 0b       	sbc	r31, r29
     dfa:	d8 01       	movw	r26, r16
     dfc:	15 96       	adiw	r26, 0x05	; 5
     dfe:	fc 93       	st	X, r31
     e00:	ee 93       	st	-X, r30
     e02:	14 97       	sbiw	r26, 0x04	; 4
     e04:	c8 01       	movw	r24, r16
     e06:	bf 01       	movw	r22, r30
     e08:	0e 94 00 00 	call	0	; 0x0 <_ZNK6String6charAtEj>
     e0c:	f8 01       	movw	r30, r16
     e0e:	80 81       	ld	r24, Z
     e10:	91 81       	ldd	r25, Z+1	; 0x01
     e12:	00 97       	sbiw	r24, 0x00	; 0
     e14:	01 f0       	breq	.+0      	; 0xe16 <_ZN6StringC2EPKc+0x40>
     e16:	be 01       	movw	r22, r28
     e18:	0e 94 00 00 	call	0	; 0x0 <_ZNK6String6charAtEj>
     e1c:	df 91       	pop	r29
     e1e:	cf 91       	pop	r28
     e20:	1f 91       	pop	r17
     e22:	0f 91       	pop	r16
     e24:	08 95       	ret

00000e26 <_ZN6StringC1Eli>:
     e26:	ef 92       	push	r14
     e28:	ff 92       	push	r15
     e2a:	0f 93       	push	r16
     e2c:	1f 93       	push	r17
     e2e:	df 93       	push	r29
     e30:	cf 93       	push	r28
     e32:	cd b7       	in	r28, 0x3d	; 61
     e34:	de b7       	in	r29, 0x3e	; 62
     e36:	a1 97       	sbiw	r28, 0x21	; 33
     e38:	0f b6       	in	r0, 0x3f	; 63
     e3a:	f8 94       	cli
     e3c:	de bf       	out	0x3e, r29	; 62
     e3e:	0f be       	out	0x3f, r0	; 63
     e40:	cd bf       	out	0x3d, r28	; 61
     e42:	8c 01       	movw	r16, r24
     e44:	cb 01       	movw	r24, r22
     e46:	ba 01       	movw	r22, r20
     e48:	7e 01       	movw	r14, r28
     e4a:	08 94       	sec
     e4c:	e1 1c       	adc	r14, r1
     e4e:	f1 1c       	adc	r15, r1
     e50:	a7 01       	movw	r20, r14
     e52:	0e 94 00 00 	call	0	; 0x0 <_ZNK6String6charAtEj>
     e56:	f7 01       	movw	r30, r14
     e58:	01 90       	ld	r0, Z+
     e5a:	00 20       	and	r0, r0
     e5c:	01 f4       	brne	.+0      	; 0xe5e <_ZN6StringC1Eli+0x38>
     e5e:	31 97       	sbiw	r30, 0x01	; 1
     e60:	ee 19       	sub	r30, r14
     e62:	ff 09       	sbc	r31, r15
     e64:	d8 01       	movw	r26, r16
     e66:	15 96       	adiw	r26, 0x05	; 5
     e68:	fc 93       	st	X, r31
     e6a:	ee 93       	st	-X, r30
     e6c:	14 97       	sbiw	r26, 0x04	; 4
     e6e:	c8 01       	movw	r24, r16
     e70:	bf 01       	movw	r22, r30
     e72:	0e 94 00 00 	call	0	; 0x0 <_ZNK6String6charAtEj>
     e76:	f8 01       	movw	r30, r16
     e78:	80 81       	ld	r24, Z
     e7a:	91 81       	ldd	r25, Z+1	; 0x01
     e7c:	00 97       	sbiw	r24, 0x00	; 0
     e7e:	01 f0       	breq	.+0      	; 0xe80 <_ZN6StringC1Eli+0x5a>
     e80:	b7 01       	movw	r22, r14
     e82:	0e 94 00 00 	call	0	; 0x0 <_ZNK6String6charAtEj>
     e86:	a1 96       	adiw	r28, 0x21	; 33
     e88:	0f b6       	in	r0, 0x3f	; 63
     e8a:	f8 94       	cli
     e8c:	de bf       	out	0x3e, r29	; 62
     e8e:	0f be       	out	0x3f, r0	; 63
     e90:	cd bf       	out	0x3d, r28	; 61
     e92:	cf 91       	pop	r28
     e94:	df 91       	pop	r29
     e96:	1f 91       	pop	r17
     e98:	0f 91       	pop	r16
     e9a:	ff 90       	pop	r15
     e9c:	ef 90       	pop	r14
     e9e:	08 95       	ret

00000ea0 <_ZN6StringC2Eli>:
     ea0:	ef 92       	push	r14
     ea2:	ff 92       	push	r15
     ea4:	0f 93       	push	r16
     ea6:	1f 93       	push	r17
     ea8:	df 93       	push	r29
     eaa:	cf 93       	push	r28
     eac:	cd b7       	in	r28, 0x3d	; 61
     eae:	de b7       	in	r29, 0x3e	; 62
     eb0:	a1 97       	sbiw	r28, 0x21	; 33
     eb2:	0f b6       	in	r0, 0x3f	; 63
     eb4:	f8 94       	cli
     eb6:	de bf       	out	0x3e, r29	; 62
     eb8:	0f be       	out	0x3f, r0	; 63
     eba:	cd bf       	out	0x3d, r28	; 61
     ebc:	8c 01       	movw	r16, r24
     ebe:	cb 01       	movw	r24, r22
     ec0:	ba 01       	movw	r22, r20
     ec2:	7e 01       	movw	r14, r28
     ec4:	08 94       	sec
     ec6:	e1 1c       	adc	r14, r1
     ec8:	f1 1c       	adc	r15, r1
     eca:	a7 01       	movw	r20, r14
     ecc:	0e 94 00 00 	call	0	; 0x0 <_ZNK6String6charAtEj>
     ed0:	f7 01       	movw	r30, r14
     ed2:	01 90       	ld	r0, Z+
     ed4:	00 20       	and	r0, r0
     ed6:	01 f4       	brne	.+0      	; 0xed8 <_ZN6StringC2Eli+0x38>
     ed8:	31 97       	sbiw	r30, 0x01	; 1
     eda:	ee 19       	sub	r30, r14
     edc:	ff 09       	sbc	r31, r15
     ede:	d8 01       	movw	r26, r16
     ee0:	15 96       	adiw	r26, 0x05	; 5
     ee2:	fc 93       	st	X, r31
     ee4:	ee 93       	st	-X, r30
     ee6:	14 97       	sbiw	r26, 0x04	; 4
     ee8:	c8 01       	movw	r24, r16
     eea:	bf 01       	movw	r22, r30
     eec:	0e 94 00 00 	call	0	; 0x0 <_ZNK6String6charAtEj>
     ef0:	f8 01       	movw	r30, r16
     ef2:	80 81       	ld	r24, Z
     ef4:	91 81       	ldd	r25, Z+1	; 0x01
     ef6:	00 97       	sbiw	r24, 0x00	; 0
     ef8:	01 f0       	breq	.+0      	; 0xefa <_ZN6StringC2Eli+0x5a>
     efa:	b7 01       	movw	r22, r14
     efc:	0e 94 00 00 	call	0	; 0x0 <_ZNK6String6charAtEj>
     f00:	a1 96       	adiw	r28, 0x21	; 33
     f02:	0f b6       	in	r0, 0x3f	; 63
     f04:	f8 94       	cli
     f06:	de bf       	out	0x3e, r29	; 62
     f08:	0f be       	out	0x3f, r0	; 63
     f0a:	cd bf       	out	0x3d, r28	; 61
     f0c:	cf 91       	pop	r28
     f0e:	df 91       	pop	r29
     f10:	1f 91       	pop	r17
     f12:	0f 91       	pop	r16
     f14:	ff 90       	pop	r15
     f16:	ef 90       	pop	r14
     f18:	08 95       	ret

00000f1a <_ZN6StringC1Eii>:
     f1a:	ef 92       	push	r14
     f1c:	ff 92       	push	r15
     f1e:	0f 93       	push	r16
     f20:	1f 93       	push	r17
     f22:	df 93       	push	r29
     f24:	cf 93       	push	r28
     f26:	cd b7       	in	r28, 0x3d	; 61
     f28:	de b7       	in	r29, 0x3e	; 62
     f2a:	a1 97       	sbiw	r28, 0x21	; 33
     f2c:	0f b6       	in	r0, 0x3f	; 63
     f2e:	f8 94       	cli
     f30:	de bf       	out	0x3e, r29	; 62
     f32:	0f be       	out	0x3f, r0	; 63
     f34:	cd bf       	out	0x3d, r28	; 61
     f36:	8c 01       	movw	r16, r24
     f38:	cb 01       	movw	r24, r22
     f3a:	7e 01       	movw	r14, r28
     f3c:	08 94       	sec
     f3e:	e1 1c       	adc	r14, r1
     f40:	f1 1c       	adc	r15, r1
     f42:	b7 01       	movw	r22, r14
     f44:	0e 94 00 00 	call	0	; 0x0 <_ZNK6String6charAtEj>
     f48:	f7 01       	movw	r30, r14
     f4a:	01 90       	ld	r0, Z+
     f4c:	00 20       	and	r0, r0
     f4e:	01 f4       	brne	.+0      	; 0xf50 <_ZN6StringC1Eii+0x36>
     f50:	31 97       	sbiw	r30, 0x01	; 1
     f52:	ee 19       	sub	r30, r14
     f54:	ff 09       	sbc	r31, r15
     f56:	d8 01       	movw	r26, r16
     f58:	15 96       	adiw	r26, 0x05	; 5
     f5a:	fc 93       	st	X, r31
     f5c:	ee 93       	st	-X, r30
     f5e:	14 97       	sbiw	r26, 0x04	; 4
     f60:	c8 01       	movw	r24, r16
     f62:	bf 01       	movw	r22, r30
     f64:	0e 94 00 00 	call	0	; 0x0 <_ZNK6String6charAtEj>
     f68:	f8 01       	movw	r30, r16
     f6a:	80 81       	ld	r24, Z
     f6c:	91 81       	ldd	r25, Z+1	; 0x01
     f6e:	00 97       	sbiw	r24, 0x00	; 0
     f70:	01 f0       	breq	.+0      	; 0xf72 <_ZN6StringC1Eii+0x58>
     f72:	b7 01       	movw	r22, r14
     f74:	0e 94 00 00 	call	0	; 0x0 <_ZNK6String6charAtEj>
     f78:	a1 96       	adiw	r28, 0x21	; 33
     f7a:	0f b6       	in	r0, 0x3f	; 63
     f7c:	f8 94       	cli
     f7e:	de bf       	out	0x3e, r29	; 62
     f80:	0f be       	out	0x3f, r0	; 63
     f82:	cd bf       	out	0x3d, r28	; 61
     f84:	cf 91       	pop	r28
     f86:	df 91       	pop	r29
     f88:	1f 91       	pop	r17
     f8a:	0f 91       	pop	r16
     f8c:	ff 90       	pop	r15
     f8e:	ef 90       	pop	r14
     f90:	08 95       	ret

00000f92 <_ZN6StringC2Eii>:
     f92:	ef 92       	push	r14
     f94:	ff 92       	push	r15
     f96:	0f 93       	push	r16
     f98:	1f 93       	push	r17
     f9a:	df 93       	push	r29
     f9c:	cf 93       	push	r28
     f9e:	cd b7       	in	r28, 0x3d	; 61
     fa0:	de b7       	in	r29, 0x3e	; 62
     fa2:	a1 97       	sbiw	r28, 0x21	; 33
     fa4:	0f b6       	in	r0, 0x3f	; 63
     fa6:	f8 94       	cli
     fa8:	de bf       	out	0x3e, r29	; 62
     faa:	0f be       	out	0x3f, r0	; 63
     fac:	cd bf       	out	0x3d, r28	; 61
     fae:	8c 01       	movw	r16, r24
     fb0:	cb 01       	movw	r24, r22
     fb2:	7e 01       	movw	r14, r28
     fb4:	08 94       	sec
     fb6:	e1 1c       	adc	r14, r1
     fb8:	f1 1c       	adc	r15, r1
     fba:	b7 01       	movw	r22, r14
     fbc:	0e 94 00 00 	call	0	; 0x0 <_ZNK6String6charAtEj>
     fc0:	f7 01       	movw	r30, r14
     fc2:	01 90       	ld	r0, Z+
     fc4:	00 20       	and	r0, r0
     fc6:	01 f4       	brne	.+0      	; 0xfc8 <_ZN6StringC2Eii+0x36>
     fc8:	31 97       	sbiw	r30, 0x01	; 1
     fca:	ee 19       	sub	r30, r14
     fcc:	ff 09       	sbc	r31, r15
     fce:	d8 01       	movw	r26, r16
     fd0:	15 96       	adiw	r26, 0x05	; 5
     fd2:	fc 93       	st	X, r31
     fd4:	ee 93       	st	-X, r30
     fd6:	14 97       	sbiw	r26, 0x04	; 4
     fd8:	c8 01       	movw	r24, r16
     fda:	bf 01       	movw	r22, r30
     fdc:	0e 94 00 00 	call	0	; 0x0 <_ZNK6String6charAtEj>
     fe0:	f8 01       	movw	r30, r16
     fe2:	80 81       	ld	r24, Z
     fe4:	91 81       	ldd	r25, Z+1	; 0x01
     fe6:	00 97       	sbiw	r24, 0x00	; 0
     fe8:	01 f0       	breq	.+0      	; 0xfea <_ZN6StringC2Eii+0x58>
     fea:	b7 01       	movw	r22, r14
     fec:	0e 94 00 00 	call	0	; 0x0 <_ZNK6String6charAtEj>
     ff0:	a1 96       	adiw	r28, 0x21	; 33
     ff2:	0f b6       	in	r0, 0x3f	; 63
     ff4:	f8 94       	cli
     ff6:	de bf       	out	0x3e, r29	; 62
     ff8:	0f be       	out	0x3f, r0	; 63
     ffa:	cd bf       	out	0x3d, r28	; 61
     ffc:	cf 91       	pop	r28
     ffe:	df 91       	pop	r29
    1000:	1f 91       	pop	r17
    1002:	0f 91       	pop	r16
    1004:	ff 90       	pop	r15
    1006:	ef 90       	pop	r14
    1008:	08 95       	ret

main.o:     file format elf32-avr

Sections:
Idx Name          Size      VMA       LMA       File off  Algn
  0 .text         0000000e  00000000  00000000  00000034  2**0
                  CONTENTS, ALLOC, LOAD, RELOC, READONLY, CODE
  1 .data         00000000  00000000  00000000  00000042  2**0
                  CONTENTS, ALLOC, LOAD, DATA
  2 .bss          00000000  00000000  00000000  00000042  2**0
                  ALLOC

Disassembly of section .text:

00000000 <main>:
   0:	0e 94 00 00 	call	0	; 0x0 <main>
   4:	0e 94 00 00 	call	0	; 0x0 <main>
   8:	0e 94 00 00 	call	0	; 0x0 <main>
   c:	00 c0       	rjmp	.+0      	; 0xe <__zero_reg__+0xd>

HardwareSerial.o:     file format elf32-avr

Sections:
Idx Name          Size      VMA       LMA       File off  Algn
  0 .text         0000049a  00000000  00000000  00000034  2**0
                  CONTENTS, ALLOC, LOAD, RELOC, READONLY, CODE
  1 .data         0000000a  00000000  00000000  000004ce  2**0
                  CONTENTS, ALLOC, LOAD, RELOC, DATA
  2 .bss          00000097  00000000  00000000  000004d8  2**0
                  ALLOC
  3 .ctors        00000002  00000000  00000000  000004d8  2**0
                  CONTENTS, ALLOC, LOAD, RELOC, READONLY, DATA

Disassembly of section .text:

00000000 <__vector_18>:
   0:	1f 92       	push	r1
   2:	0f 92       	push	r0
   4:	0f b6       	in	r0, 0x3f	; 63
   6:	0f 92       	push	r0
   8:	11 24       	eor	r1, r1
   a:	2f 93       	push	r18
   c:	3f 93       	push	r19
   e:	4f 93       	push	r20
  10:	5f 93       	push	r21
  12:	6f 93       	push	r22
  14:	7f 93       	push	r23
  16:	8f 93       	push	r24
  18:	9f 93       	push	r25
  1a:	af 93       	push	r26
  1c:	bf 93       	push	r27
  1e:	ef 93       	push	r30
  20:	ff 93       	push	r31
  22:	40 91 c6 00 	lds	r20, 0x00C6
  26:	e0 91 00 00 	lds	r30, 0x0000
  2a:	f0 91 00 00 	lds	r31, 0x0000
  2e:	cf 01       	movw	r24, r30
  30:	01 96       	adiw	r24, 0x01	; 1
  32:	60 e8       	ldi	r22, 0x80	; 128
  34:	70 e0       	ldi	r23, 0x00	; 0
  36:	0e 94 00 00 	call	0	; 0x0 <__vector_18>
  3a:	9c 01       	movw	r18, r24
  3c:	80 91 00 00 	lds	r24, 0x0000
  40:	90 91 00 00 	lds	r25, 0x0000
  44:	28 17       	cp	r18, r24
  46:	39 07       	cpc	r19, r25
  48:	01 f0       	breq	.+0      	; 0x4a <__vector_18+0x4a>
  4a:	e0 50       	subi	r30, 0x00	; 0
  4c:	f0 40       	sbci	r31, 0x00	; 0
  4e:	40 83       	st	Z, r20
  50:	30 93 00 00 	sts	0x0000, r19
  54:	20 93 00 00 	sts	0x0000, r18
  58:	ff 91       	pop	r31
  5a:	ef 91       	pop	r30
  5c:	bf 91       	pop	r27
  5e:	af 91       	pop	r26
  60:	9f 91       	pop	r25
  62:	8f 91       	pop	r24
  64:	7f 91       	pop	r23
  66:	6f 91       	pop	r22
  68:	5f 91       	pop	r21
  6a:	4f 91       	pop	r20
  6c:	3f 91       	pop	r19
  6e:	2f 91       	pop	r18
  70:	0f 90       	pop	r0
  72:	0f be       	out	0x3f, r0	; 63
  74:	0f 90       	pop	r0
  76:	1f 90       	pop	r1
  78:	18 95       	reti

0000007a <_ZN14HardwareSerialC2EP11ring_bufferPVhS3_S3_S3_S3_hhhhh>:
  7a:	8f 92       	push	r8
  7c:	af 92       	push	r10
  7e:	cf 92       	push	r12
  80:	df 92       	push	r13
  82:	ef 92       	push	r14
  84:	ff 92       	push	r15
  86:	0f 93       	push	r16
  88:	1f 93       	push	r17
  8a:	df 93       	push	r29
  8c:	cf 93       	push	r28
  8e:	cd b7       	in	r28, 0x3d	; 61
  90:	de b7       	in	r29, 0x3e	; 62
  92:	fc 01       	movw	r30, r24
  94:	80 e0       	ldi	r24, 0x00	; 0
  96:	90 e0       	ldi	r25, 0x00	; 0
  98:	91 83       	std	Z+1, r25	; 0x01
  9a:	80 83       	st	Z, r24
  9c:	73 83       	std	Z+3, r23	; 0x03
  9e:	62 83       	std	Z+2, r22	; 0x02
  a0:	55 83       	std	Z+5, r21	; 0x05
  a2:	44 83       	std	Z+4, r20	; 0x04
  a4:	37 83       	std	Z+7, r19	; 0x07
  a6:	26 83       	std	Z+6, r18	; 0x06
  a8:	11 87       	std	Z+9, r17	; 0x09
  aa:	00 87       	std	Z+8, r16	; 0x08
  ac:	f3 86       	std	Z+11, r15	; 0x0b
  ae:	e2 86       	std	Z+10, r14	; 0x0a
  b0:	d5 86       	std	Z+13, r13	; 0x0d
  b2:	c4 86       	std	Z+12, r12	; 0x0c
  b4:	a6 86       	std	Z+14, r10	; 0x0e
  b6:	87 86       	std	Z+15, r8	; 0x0f
  b8:	8d 85       	ldd	r24, Y+13	; 0x0d
  ba:	80 8b       	std	Z+16, r24	; 0x10
  bc:	8e 85       	ldd	r24, Y+14	; 0x0e
  be:	81 8b       	std	Z+17, r24	; 0x11
  c0:	8f 85       	ldd	r24, Y+15	; 0x0f
  c2:	82 8b       	std	Z+18, r24	; 0x12
  c4:	cf 91       	pop	r28
  c6:	df 91       	pop	r29
  c8:	1f 91       	pop	r17
  ca:	0f 91       	pop	r16
  cc:	ff 90       	pop	r15
  ce:	ef 90       	pop	r14
  d0:	df 90       	pop	r13
  d2:	cf 90       	pop	r12
  d4:	af 90       	pop	r10
  d6:	8f 90       	pop	r8
  d8:	08 95       	ret

000000da <_ZN14HardwareSerialC1EP11ring_bufferPVhS3_S3_S3_S3_hhhhh>:
  da:	8f 92       	push	r8
  dc:	af 92       	push	r10
  de:	cf 92       	push	r12
  e0:	df 92       	push	r13
  e2:	ef 92       	push	r14
  e4:	ff 92       	push	r15
  e6:	0f 93       	push	r16
  e8:	1f 93       	push	r17
  ea:	df 93       	push	r29
  ec:	cf 93       	push	r28
  ee:	cd b7       	in	r28, 0x3d	; 61
  f0:	de b7       	in	r29, 0x3e	; 62
  f2:	fc 01       	movw	r30, r24
  f4:	80 e0       	ldi	r24, 0x00	; 0
  f6:	90 e0       	ldi	r25, 0x00	; 0
  f8:	91 83       	std	Z+1, r25	; 0x01
  fa:	80 83       	st	Z, r24
  fc:	73 83       	std	Z+3, r23	; 0x03
  fe:	62 83       	std	Z+2, r22	; 0x02
 100:	55 83       	std	Z+5, r21	; 0x05
 102:	44 83       	std	Z+4, r20	; 0x04
 104:	37 83       	std	Z+7, r19	; 0x07
 106:	26 83       	std	Z+6, r18	; 0x06
 108:	11 87       	std	Z+9, r17	; 0x09
 10a:	00 87       	std	Z+8, r16	; 0x08
 10c:	f3 86       	std	Z+11, r15	; 0x0b
 10e:	e2 86       	std	Z+10, r14	; 0x0a
 110:	d5 86       	std	Z+13, r13	; 0x0d
 112:	c4 86       	std	Z+12, r12	; 0x0c
 114:	a6 86       	std	Z+14, r10	; 0x0e
 116:	87 86       	std	Z+15, r8	; 0x0f
 118:	8d 85       	ldd	r24, Y+13	; 0x0d
 11a:	80 8b       	std	Z+16, r24	; 0x10
 11c:	8e 85       	ldd	r24, Y+14	; 0x0e
 11e:	81 8b       	std	Z+17, r24	; 0x11
 120:	8f 85       	ldd	r24, Y+15	; 0x0f
 122:	82 8b       	std	Z+18, r24	; 0x12
 124:	cf 91       	pop	r28
 126:	df 91       	pop	r29
 128:	1f 91       	pop	r17
 12a:	0f 91       	pop	r16
 12c:	ff 90       	pop	r15
 12e:	ef 90       	pop	r14
 130:	df 90       	pop	r13
 132:	cf 90       	pop	r12
 134:	af 90       	pop	r10
 136:	8f 90       	pop	r8
 138:	08 95       	ret

0000013a <_ZN14HardwareSerial5beginEl>:
 13a:	5f 92       	push	r5
 13c:	6f 92       	push	r6
 13e:	7f 92       	push	r7
 140:	8f 92       	push	r8
 142:	9f 92       	push	r9
 144:	af 92       	push	r10
 146:	bf 92       	push	r11
 148:	cf 92       	push	r12
 14a:	df 92       	push	r13
 14c:	ef 92       	push	r14
 14e:	ff 92       	push	r15
 150:	0f 93       	push	r16
 152:	1f 93       	push	r17
 154:	cf 93       	push	r28
 156:	df 93       	push	r29
 158:	ec 01       	movw	r28, r24
 15a:	5a 01       	movw	r10, r20
 15c:	6b 01       	movw	r12, r22
 15e:	81 e4       	ldi	r24, 0x41	; 65
 160:	a8 16       	cp	r10, r24
 162:	82 e4       	ldi	r24, 0x42	; 66
 164:	b8 06       	cpc	r11, r24
 166:	8f e0       	ldi	r24, 0x0F	; 15
 168:	c8 06       	cpc	r12, r24
 16a:	80 e0       	ldi	r24, 0x00	; 0
 16c:	d8 06       	cpc	r13, r24
 16e:	00 f0       	brcs	.+0      	; 0x170 <_ZN14HardwareSerial5beginEl+0x36>
 170:	00 c0       	rjmp	.+0      	; 0x172 <_ZN14HardwareSerial5beginEl+0x38>
 172:	60 e8       	ldi	r22, 0x80	; 128
 174:	74 e8       	ldi	r23, 0x84	; 132
 176:	8e e1       	ldi	r24, 0x1E	; 30
 178:	90 e0       	ldi	r25, 0x00	; 0
 17a:	a6 01       	movw	r20, r12
 17c:	95 01       	movw	r18, r10
 17e:	0e 94 00 00 	call	0	; 0x0 <__vector_18>
 182:	39 01       	movw	r6, r18
 184:	4a 01       	movw	r8, r20
 186:	08 94       	sec
 188:	61 08       	sbc	r6, r1
 18a:	71 08       	sbc	r7, r1
 18c:	81 08       	sbc	r8, r1
 18e:	91 08       	sbc	r9, r1
 190:	96 94       	lsr	r9
 192:	87 94       	ror	r8
 194:	77 94       	ror	r7
 196:	67 94       	ror	r6
 198:	a4 01       	movw	r20, r8
 19a:	93 01       	movw	r18, r6
 19c:	2f 5f       	subi	r18, 0xFF	; 255
 19e:	3f 4f       	sbci	r19, 0xFF	; 255
 1a0:	4f 4f       	sbci	r20, 0xFF	; 255
 1a2:	5f 4f       	sbci	r21, 0xFF	; 255
 1a4:	74 e0       	ldi	r23, 0x04	; 4
 1a6:	22 0f       	add	r18, r18
 1a8:	33 1f       	adc	r19, r19
 1aa:	44 1f       	adc	r20, r20
 1ac:	55 1f       	adc	r21, r21
 1ae:	7a 95       	dec	r23
 1b0:	01 f4       	brne	.+0      	; 0x1b2 <_ZN14HardwareSerial5beginEl+0x78>
 1b2:	60 e0       	ldi	r22, 0x00	; 0
 1b4:	74 e2       	ldi	r23, 0x24	; 36
 1b6:	84 ef       	ldi	r24, 0xF4	; 244
 1b8:	90 e0       	ldi	r25, 0x00	; 0
 1ba:	0e 94 00 00 	call	0	; 0x0 <__vector_18>
 1be:	ca 01       	movw	r24, r20
 1c0:	b9 01       	movw	r22, r18
 1c2:	2f ef       	ldi	r18, 0xFF	; 255
 1c4:	30 e0       	ldi	r19, 0x00	; 0
 1c6:	40 e0       	ldi	r20, 0x00	; 0
 1c8:	50 e0       	ldi	r21, 0x00	; 0
 1ca:	0e 94 00 00 	call	0	; 0x0 <__vector_18>
 1ce:	a6 01       	movw	r20, r12
 1d0:	95 01       	movw	r18, r10
 1d2:	0e 94 00 00 	call	0	; 0x0 <__vector_18>
 1d6:	8f ef       	ldi	r24, 0xFF	; 255
 1d8:	90 e0       	ldi	r25, 0x00	; 0
 1da:	82 1b       	sub	r24, r18
 1dc:	93 0b       	sbc	r25, r19
 1de:	18 16       	cp	r1, r24
 1e0:	19 06       	cpc	r1, r25
 1e2:	04 f4       	brge	.+0      	; 0x1e4 <_ZN14HardwareSerial5beginEl+0xaa>
 1e4:	52 2e       	mov	r5, r18
 1e6:	50 94       	com	r5
 1e8:	00 c0       	rjmp	.+0      	; 0x1ea <_ZN14HardwareSerial5beginEl+0xb0>
 1ea:	52 2e       	mov	r5, r18
 1ec:	53 94       	inc	r5
 1ee:	60 e0       	ldi	r22, 0x00	; 0
 1f0:	79 e0       	ldi	r23, 0x09	; 9
 1f2:	8d e3       	ldi	r24, 0x3D	; 61
 1f4:	90 e0       	ldi	r25, 0x00	; 0
 1f6:	a6 01       	movw	r20, r12
 1f8:	95 01       	movw	r18, r10
 1fa:	0e 94 00 00 	call	0	; 0x0 <__vector_18>
 1fe:	21 50       	subi	r18, 0x01	; 1
 200:	30 40       	sbci	r19, 0x00	; 0
 202:	40 40       	sbci	r20, 0x00	; 0
 204:	50 40       	sbci	r21, 0x00	; 0
 206:	56 95       	lsr	r21
 208:	47 95       	ror	r20
 20a:	37 95       	ror	r19
 20c:	27 95       	ror	r18
 20e:	2f 5f       	subi	r18, 0xFF	; 255
 210:	3f 4f       	sbci	r19, 0xFF	; 255
 212:	4f 4f       	sbci	r20, 0xFF	; 255
 214:	5f 4f       	sbci	r21, 0xFF	; 255
 216:	93 e0       	ldi	r25, 0x03	; 3
 218:	22 0f       	add	r18, r18
 21a:	33 1f       	adc	r19, r19
 21c:	44 1f       	adc	r20, r20
 21e:	55 1f       	adc	r21, r21
 220:	9a 95       	dec	r25
 222:	01 f4       	brne	.+0      	; 0x224 <_ZN14HardwareSerial5beginEl+0xea>
 224:	60 e0       	ldi	r22, 0x00	; 0
 226:	74 e2       	ldi	r23, 0x24	; 36
 228:	84 ef       	ldi	r24, 0xF4	; 244
 22a:	90 e0       	ldi	r25, 0x00	; 0
 22c:	0e 94 00 00 	call	0	; 0x0 <__vector_18>
 230:	ca 01       	movw	r24, r20
 232:	b9 01       	movw	r22, r18
 234:	2f ef       	ldi	r18, 0xFF	; 255
 236:	30 e0       	ldi	r19, 0x00	; 0
 238:	40 e0       	ldi	r20, 0x00	; 0
 23a:	50 e0       	ldi	r21, 0x00	; 0
 23c:	0e 94 00 00 	call	0	; 0x0 <__vector_18>
 240:	a6 01       	movw	r20, r12
 242:	95 01       	movw	r18, r10
 244:	0e 94 00 00 	call	0	; 0x0 <__vector_18>
 248:	8f ef       	ldi	r24, 0xFF	; 255
 24a:	90 e0       	ldi	r25, 0x00	; 0
 24c:	82 1b       	sub	r24, r18
 24e:	93 0b       	sbc	r25, r19
 250:	18 16       	cp	r1, r24
 252:	19 06       	cpc	r1, r25
 254:	04 f4       	brge	.+0      	; 0x256 <_ZN14HardwareSerial5beginEl+0x11c>
 256:	20 95       	com	r18
 258:	00 c0       	rjmp	.+0      	; 0x25a <_ZN14HardwareSerial5beginEl+0x120>
 25a:	2f 5f       	subi	r18, 0xFF	; 255
 25c:	25 15       	cp	r18, r5
 25e:	00 f4       	brcc	.+0      	; 0x260 <_ZN14HardwareSerial5beginEl+0x126>
 260:	e8 85       	ldd	r30, Y+8	; 0x08
 262:	f9 85       	ldd	r31, Y+9	; 0x09
 264:	81 e0       	ldi	r24, 0x01	; 1
 266:	90 e0       	ldi	r25, 0x00	; 0
 268:	0a 88       	ldd	r0, Y+18	; 0x12
 26a:	00 c0       	rjmp	.+0      	; 0x26c <_ZN14HardwareSerial5beginEl+0x132>
 26c:	88 0f       	add	r24, r24
 26e:	99 1f       	adc	r25, r25
 270:	0a 94       	dec	r0
 272:	02 f4       	brpl	.+0      	; 0x274 <_ZN14HardwareSerial5beginEl+0x13a>
 274:	80 83       	st	Z, r24
 276:	60 e0       	ldi	r22, 0x00	; 0
 278:	79 e0       	ldi	r23, 0x09	; 9
 27a:	8d e3       	ldi	r24, 0x3D	; 61
 27c:	90 e0       	ldi	r25, 0x00	; 0
 27e:	a6 01       	movw	r20, r12
 280:	95 01       	movw	r18, r10
 282:	0e 94 00 00 	call	0	; 0x0 <__vector_18>
 286:	21 50       	subi	r18, 0x01	; 1
 288:	30 40       	sbci	r19, 0x00	; 0
 28a:	40 40       	sbci	r20, 0x00	; 0
 28c:	50 40       	sbci	r21, 0x00	; 0
 28e:	56 95       	lsr	r21
 290:	47 95       	ror	r20
 292:	37 95       	ror	r19
 294:	27 95       	ror	r18
 296:	82 2f       	mov	r24, r18
 298:	23 2f       	mov	r18, r19
 29a:	00 c0       	rjmp	.+0      	; 0x29c <_ZN14HardwareSerial5beginEl+0x162>
 29c:	e8 85       	ldd	r30, Y+8	; 0x08
 29e:	f9 85       	ldd	r31, Y+9	; 0x09
 2a0:	10 82       	st	Z, r1
 2a2:	86 2d       	mov	r24, r6
 2a4:	27 2d       	mov	r18, r7
 2a6:	ec 81       	ldd	r30, Y+4	; 0x04
 2a8:	fd 81       	ldd	r31, Y+5	; 0x05
 2aa:	20 83       	st	Z, r18
 2ac:	ee 81       	ldd	r30, Y+6	; 0x06
 2ae:	ff 81       	ldd	r31, Y+7	; 0x07
 2b0:	80 83       	st	Z, r24
 2b2:	ea 85       	ldd	r30, Y+10	; 0x0a
 2b4:	fb 85       	ldd	r31, Y+11	; 0x0b
 2b6:	20 81       	ld	r18, Z
 2b8:	41 e0       	ldi	r20, 0x01	; 1
 2ba:	50 e0       	ldi	r21, 0x00	; 0
 2bc:	ca 01       	movw	r24, r20
 2be:	0e 84       	ldd	r0, Y+14	; 0x0e
 2c0:	00 c0       	rjmp	.+0      	; 0x2c2 <_ZN14HardwareSerial5beginEl+0x188>
 2c2:	88 0f       	add	r24, r24
 2c4:	99 1f       	adc	r25, r25
 2c6:	0a 94       	dec	r0
 2c8:	02 f4       	brpl	.+0      	; 0x2ca <_ZN14HardwareSerial5beginEl+0x190>
 2ca:	28 2b       	or	r18, r24
 2cc:	20 83       	st	Z, r18
 2ce:	ea 85       	ldd	r30, Y+10	; 0x0a
 2d0:	fb 85       	ldd	r31, Y+11	; 0x0b
 2d2:	20 81       	ld	r18, Z
 2d4:	ca 01       	movw	r24, r20
 2d6:	0f 84       	ldd	r0, Y+15	; 0x0f
 2d8:	00 c0       	rjmp	.+0      	; 0x2da <_ZN14HardwareSerial5beginEl+0x1a0>
 2da:	88 0f       	add	r24, r24
 2dc:	99 1f       	adc	r25, r25
 2de:	0a 94       	dec	r0
 2e0:	02 f4       	brpl	.+0      	; 0x2e2 <_ZN14HardwareSerial5beginEl+0x1a8>
 2e2:	28 2b       	or	r18, r24
 2e4:	20 83       	st	Z, r18
 2e6:	ea 85       	ldd	r30, Y+10	; 0x0a
 2e8:	fb 85       	ldd	r31, Y+11	; 0x0b
 2ea:	80 81       	ld	r24, Z
 2ec:	08 88       	ldd	r0, Y+16	; 0x10
 2ee:	00 c0       	rjmp	.+0      	; 0x2f0 <_ZN14HardwareSerial5beginEl+0x1b6>
 2f0:	44 0f       	add	r20, r20
 2f2:	55 1f       	adc	r21, r21
 2f4:	0a 94       	dec	r0
 2f6:	02 f4       	brpl	.+0      	; 0x2f8 <_ZN14HardwareSerial5beginEl+0x1be>
 2f8:	84 2b       	or	r24, r20
 2fa:	80 83       	st	Z, r24
 2fc:	df 91       	pop	r29
 2fe:	cf 91       	pop	r28
 300:	1f 91       	pop	r17
 302:	0f 91       	pop	r16
 304:	ff 90       	pop	r15
 306:	ef 90       	pop	r14
 308:	df 90       	pop	r13
 30a:	cf 90       	pop	r12
 30c:	bf 90       	pop	r11
 30e:	af 90       	pop	r10
 310:	9f 90       	pop	r9
 312:	8f 90       	pop	r8
 314:	7f 90       	pop	r7
 316:	6f 90       	pop	r6
 318:	5f 90       	pop	r5
 31a:	08 95       	ret

0000031c <_ZN14HardwareSerial3endEv>:
 31c:	fc 01       	movw	r30, r24
 31e:	a2 85       	ldd	r26, Z+10	; 0x0a
 320:	b3 85       	ldd	r27, Z+11	; 0x0b
 322:	4c 91       	ld	r20, X
 324:	21 e0       	ldi	r18, 0x01	; 1
 326:	30 e0       	ldi	r19, 0x00	; 0
 328:	c9 01       	movw	r24, r18
 32a:	06 84       	ldd	r0, Z+14	; 0x0e
 32c:	00 c0       	rjmp	.+0      	; 0x32e <_ZN14HardwareSerial3endEv+0x12>
 32e:	88 0f       	add	r24, r24
 330:	99 1f       	adc	r25, r25
 332:	0a 94       	dec	r0
 334:	02 f4       	brpl	.+0      	; 0x336 <_ZN14HardwareSerial3endEv+0x1a>
 336:	80 95       	com	r24
 338:	84 23       	and	r24, r20
 33a:	8c 93       	st	X, r24
 33c:	a2 85       	ldd	r26, Z+10	; 0x0a
 33e:	b3 85       	ldd	r27, Z+11	; 0x0b
 340:	4c 91       	ld	r20, X
 342:	c9 01       	movw	r24, r18
 344:	07 84       	ldd	r0, Z+15	; 0x0f
 346:	00 c0       	rjmp	.+0      	; 0x348 <_ZN14HardwareSerial3endEv+0x2c>
 348:	88 0f       	add	r24, r24
 34a:	99 1f       	adc	r25, r25
 34c:	0a 94       	dec	r0
 34e:	02 f4       	brpl	.+0      	; 0x350 <_ZN14HardwareSerial3endEv+0x34>
 350:	80 95       	com	r24
 352:	84 23       	and	r24, r20
 354:	8c 93       	st	X, r24
 356:	a2 85       	ldd	r26, Z+10	; 0x0a
 358:	b3 85       	ldd	r27, Z+11	; 0x0b
 35a:	8c 91       	ld	r24, X
 35c:	00 88       	ldd	r0, Z+16	; 0x10
 35e:	00 c0       	rjmp	.+0      	; 0x360 <_ZN14HardwareSerial3endEv+0x44>
 360:	22 0f       	add	r18, r18
 362:	33 1f       	adc	r19, r19
 364:	0a 94       	dec	r0
 366:	02 f4       	brpl	.+0      	; 0x368 <_ZN14HardwareSerial3endEv+0x4c>
 368:	20 95       	com	r18
 36a:	28 23       	and	r18, r24
 36c:	2c 93       	st	X, r18
 36e:	08 95       	ret

00000370 <_ZN14HardwareSerial9availableEv>:
 370:	dc 01       	movw	r26, r24
 372:	12 96       	adiw	r26, 0x02	; 2
 374:	ed 91       	ld	r30, X+
 376:	fc 91       	ld	r31, X
 378:	13 97       	sbiw	r26, 0x03	; 3
 37a:	e0 58       	subi	r30, 0x80	; 128
 37c:	ff 4f       	sbci	r31, 0xFF	; 255
 37e:	81 91       	ld	r24, Z+
 380:	91 91       	ld	r25, Z+
 382:	80 58       	subi	r24, 0x80	; 128
 384:	9f 4f       	sbci	r25, 0xFF	; 255
 386:	20 81       	ld	r18, Z
 388:	31 81       	ldd	r19, Z+1	; 0x01
 38a:	82 1b       	sub	r24, r18
 38c:	93 0b       	sbc	r25, r19
 38e:	60 e8       	ldi	r22, 0x80	; 128
 390:	70 e0       	ldi	r23, 0x00	; 0
 392:	0e 94 00 00 	call	0	; 0x0 <__vector_18>
 396:	08 95       	ret

00000398 <_ZN14HardwareSerial4readEv>:
 398:	cf 93       	push	r28
 39a:	df 93       	push	r29
 39c:	dc 01       	movw	r26, r24
 39e:	12 96       	adiw	r26, 0x02	; 2
 3a0:	ed 91       	ld	r30, X+
 3a2:	fc 91       	ld	r31, X
 3a4:	13 97       	sbiw	r26, 0x03	; 3
 3a6:	ef 01       	movw	r28, r30
 3a8:	ce 57       	subi	r28, 0x7E	; 126
 3aa:	df 4f       	sbci	r29, 0xFF	; 255
 3ac:	48 81       	ld	r20, Y
 3ae:	59 81       	ldd	r21, Y+1	; 0x01
 3b0:	e0 58       	subi	r30, 0x80	; 128
 3b2:	ff 4f       	sbci	r31, 0xFF	; 255
 3b4:	80 81       	ld	r24, Z
 3b6:	91 81       	ldd	r25, Z+1	; 0x01
 3b8:	e0 58       	subi	r30, 0x80	; 128
 3ba:	f0 40       	sbci	r31, 0x00	; 0
 3bc:	84 17       	cp	r24, r20
 3be:	95 07       	cpc	r25, r21
 3c0:	01 f4       	brne	.+0      	; 0x3c2 <_ZN14HardwareSerial4readEv+0x2a>
 3c2:	2f ef       	ldi	r18, 0xFF	; 255
 3c4:	3f ef       	ldi	r19, 0xFF	; 255
 3c6:	00 c0       	rjmp	.+0      	; 0x3c8 <_ZN14HardwareSerial4readEv+0x30>
 3c8:	e4 0f       	add	r30, r20
 3ca:	f5 1f       	adc	r31, r21
 3cc:	20 81       	ld	r18, Z
 3ce:	ca 01       	movw	r24, r20
 3d0:	01 96       	adiw	r24, 0x01	; 1
 3d2:	60 e8       	ldi	r22, 0x80	; 128
 3d4:	70 e0       	ldi	r23, 0x00	; 0
 3d6:	0e 94 00 00 	call	0	; 0x0 <__vector_18>
 3da:	99 83       	std	Y+1, r25	; 0x01
 3dc:	88 83       	st	Y, r24
 3de:	30 e0       	ldi	r19, 0x00	; 0
 3e0:	c9 01       	movw	r24, r18
 3e2:	df 91       	pop	r29
 3e4:	cf 91       	pop	r28
 3e6:	08 95       	ret

000003e8 <_ZN14HardwareSerial5flushEv>:
 3e8:	dc 01       	movw	r26, r24
 3ea:	12 96       	adiw	r26, 0x02	; 2
 3ec:	ed 91       	ld	r30, X+
 3ee:	fc 91       	ld	r31, X
 3f0:	13 97       	sbiw	r26, 0x03	; 3
 3f2:	ee 57       	subi	r30, 0x7E	; 126
 3f4:	ff 4f       	sbci	r31, 0xFF	; 255
 3f6:	80 81       	ld	r24, Z
 3f8:	91 81       	ldd	r25, Z+1	; 0x01
 3fa:	92 93       	st	-Z, r25
 3fc:	82 93       	st	-Z, r24
 3fe:	08 95       	ret

00000400 <_ZN14HardwareSerial5writeEh>:
 400:	fc 01       	movw	r30, r24
 402:	a0 85       	ldd	r26, Z+8	; 0x08
 404:	b1 85       	ldd	r27, Z+9	; 0x09
 406:	21 89       	ldd	r18, Z+17	; 0x11
 408:	8c 91       	ld	r24, X
 40a:	90 e0       	ldi	r25, 0x00	; 0
 40c:	02 2e       	mov	r0, r18
 40e:	00 c0       	rjmp	.+0      	; 0x410 <_ZN14HardwareSerial5writeEh+0x10>
 410:	95 95       	asr	r25
 412:	87 95       	ror	r24
 414:	0a 94       	dec	r0
 416:	02 f4       	brpl	.+0      	; 0x418 <_ZN14HardwareSerial5writeEh+0x18>
 418:	80 ff       	sbrs	r24, 0
 41a:	00 c0       	rjmp	.+0      	; 0x41c <_ZN14HardwareSerial5writeEh+0x1c>
 41c:	04 84       	ldd	r0, Z+12	; 0x0c
 41e:	f5 85       	ldd	r31, Z+13	; 0x0d
 420:	e0 2d       	mov	r30, r0
 422:	60 83       	st	Z, r22
 424:	08 95       	ret

00000426 <_GLOBAL__I_rx_buffer>:
 426:	80 e0       	ldi	r24, 0x00	; 0
 428:	90 e0       	ldi	r25, 0x00	; 0
 42a:	90 93 00 00 	sts	0x0000, r25
 42e:	80 93 00 00 	sts	0x0000, r24
 432:	80 e0       	ldi	r24, 0x00	; 0
 434:	90 e0       	ldi	r25, 0x00	; 0
 436:	90 93 00 00 	sts	0x0000, r25
 43a:	80 93 00 00 	sts	0x0000, r24
 43e:	85 ec       	ldi	r24, 0xC5	; 197
 440:	90 e0       	ldi	r25, 0x00	; 0
 442:	90 93 00 00 	sts	0x0000, r25
 446:	80 93 00 00 	sts	0x0000, r24
 44a:	84 ec       	ldi	r24, 0xC4	; 196
 44c:	90 e0       	ldi	r25, 0x00	; 0
 44e:	90 93 00 00 	sts	0x0000, r25
 452:	80 93 00 00 	sts	0x0000, r24
 456:	80 ec       	ldi	r24, 0xC0	; 192
 458:	90 e0       	ldi	r25, 0x00	; 0
 45a:	90 93 00 00 	sts	0x0000, r25
 45e:	80 93 00 00 	sts	0x0000, r24
 462:	81 ec       	ldi	r24, 0xC1	; 193
 464:	90 e0       	ldi	r25, 0x00	; 0
 466:	90 93 00 00 	sts	0x0000, r25
 46a:	80 93 00 00 	sts	0x0000, r24
 46e:	86 ec       	ldi	r24, 0xC6	; 198
 470:	90 e0       	ldi	r25, 0x00	; 0
 472:	90 93 00 00 	sts	0x0000, r25
 476:	80 93 00 00 	sts	0x0000, r24
 47a:	84 e0       	ldi	r24, 0x04	; 4
 47c:	80 93 00 00 	sts	0x0000, r24
 480:	83 e0       	ldi	r24, 0x03	; 3
 482:	80 93 00 00 	sts	0x0000, r24
 486:	87 e0       	ldi	r24, 0x07	; 7
 488:	80 93 00 00 	sts	0x0000, r24
 48c:	85 e0       	ldi	r24, 0x05	; 5
 48e:	80 93 00 00 	sts	0x0000, r24
 492:	81 e0       	ldi	r24, 0x01	; 1
 494:	80 93 00 00 	sts	0x0000, r24
 498:	08 95       	ret

Print.o:     file format elf32-avr

Sections:
Idx Name          Size      VMA       LMA       File off  Algn
  0 .text         0000053c  00000000  00000000  00000034  2**0
                  CONTENTS, ALLOC, LOAD, RELOC, READONLY, CODE
  1 .data         0000000c  00000000  00000000  00000570  2**0
                  CONTENTS, ALLOC, LOAD, RELOC, DATA
  2 .bss          00000000  00000000  00000000  0000057c  2**0
                  ALLOC

Disassembly of section .text:

00000000 <_ZN5Print5writeEPKc>:
   0:	0f 93       	push	r16
   2:	1f 93       	push	r17
   4:	cf 93       	push	r28
   6:	df 93       	push	r29
   8:	8c 01       	movw	r16, r24
   a:	eb 01       	movw	r28, r22
   c:	00 c0       	rjmp	.+0      	; 0xe <_ZN5Print5writeEPKc+0xe>
   e:	21 96       	adiw	r28, 0x01	; 1
  10:	d8 01       	movw	r26, r16
  12:	ed 91       	ld	r30, X+
  14:	fc 91       	ld	r31, X
  16:	01 90       	ld	r0, Z+
  18:	f0 81       	ld	r31, Z
  1a:	e0 2d       	mov	r30, r0
  1c:	c8 01       	movw	r24, r16
  1e:	09 95       	icall
  20:	68 81       	ld	r22, Y
  22:	66 23       	and	r22, r22
  24:	01 f4       	brne	.+0      	; 0x26 <_ZN5Print5writeEPKc+0x26>
  26:	df 91       	pop	r29
  28:	cf 91       	pop	r28
  2a:	1f 91       	pop	r17
  2c:	0f 91       	pop	r16
  2e:	08 95       	ret

00000030 <_ZN5Print5writeEPKhj>:
  30:	ef 92       	push	r14
  32:	ff 92       	push	r15
  34:	0f 93       	push	r16
  36:	1f 93       	push	r17
  38:	cf 93       	push	r28
  3a:	df 93       	push	r29
  3c:	8c 01       	movw	r16, r24
  3e:	7b 01       	movw	r14, r22
  40:	ea 01       	movw	r28, r20
  42:	00 c0       	rjmp	.+0      	; 0x44 <_ZN5Print5writeEPKhj+0x14>
  44:	d7 01       	movw	r26, r14
  46:	6d 91       	ld	r22, X+
  48:	7d 01       	movw	r14, r26
  4a:	d8 01       	movw	r26, r16
  4c:	ed 91       	ld	r30, X+
  4e:	fc 91       	ld	r31, X
  50:	01 90       	ld	r0, Z+
  52:	f0 81       	ld	r31, Z
  54:	e0 2d       	mov	r30, r0
  56:	c8 01       	movw	r24, r16
  58:	09 95       	icall
  5a:	21 97       	sbiw	r28, 0x01	; 1
  5c:	20 97       	sbiw	r28, 0x00	; 0
  5e:	01 f4       	brne	.+0      	; 0x60 <_ZN5Print5writeEPKhj+0x30>
  60:	df 91       	pop	r29
  62:	cf 91       	pop	r28
  64:	1f 91       	pop	r17
  66:	0f 91       	pop	r16
  68:	ff 90       	pop	r15
  6a:	ef 90       	pop	r14
  6c:	08 95       	ret

0000006e <_ZN5Print5printEPKc>:
  6e:	dc 01       	movw	r26, r24
  70:	ed 91       	ld	r30, X+
  72:	fc 91       	ld	r31, X
  74:	02 80       	ldd	r0, Z+2	; 0x02
  76:	f3 81       	ldd	r31, Z+3	; 0x03
  78:	e0 2d       	mov	r30, r0
  7a:	09 95       	icall
  7c:	08 95       	ret

0000007e <_ZN5Print11printNumberEmh>:
  7e:	2f 92       	push	r2
  80:	3f 92       	push	r3
  82:	4f 92       	push	r4
  84:	5f 92       	push	r5
  86:	6f 92       	push	r6
  88:	7f 92       	push	r7
  8a:	8f 92       	push	r8
  8c:	9f 92       	push	r9
  8e:	af 92       	push	r10
  90:	bf 92       	push	r11
  92:	cf 92       	push	r12
  94:	df 92       	push	r13
  96:	ef 92       	push	r14
  98:	ff 92       	push	r15
  9a:	0f 93       	push	r16
  9c:	1f 93       	push	r17
  9e:	df 93       	push	r29
  a0:	cf 93       	push	r28
  a2:	cd b7       	in	r28, 0x3d	; 61
  a4:	de b7       	in	r29, 0x3e	; 62
  a6:	a0 97       	sbiw	r28, 0x20	; 32
  a8:	0f b6       	in	r0, 0x3f	; 63
  aa:	f8 94       	cli
  ac:	de bf       	out	0x3e, r29	; 62
  ae:	0f be       	out	0x3f, r0	; 63
  b0:	cd bf       	out	0x3d, r28	; 61
  b2:	1c 01       	movw	r2, r24
  b4:	6a 01       	movw	r12, r20
  b6:	7b 01       	movw	r14, r22
  b8:	41 15       	cp	r20, r1
  ba:	51 05       	cpc	r21, r1
  bc:	61 05       	cpc	r22, r1
  be:	71 05       	cpc	r23, r1
  c0:	01 f4       	brne	.+0      	; 0xc2 <_ZN5Print11printNumberEmh+0x44>
  c2:	40 e3       	ldi	r20, 0x30	; 48
  c4:	50 e0       	ldi	r21, 0x00	; 0
  c6:	60 e0       	ldi	r22, 0x00	; 0
  c8:	70 e0       	ldi	r23, 0x00	; 0
  ca:	20 e0       	ldi	r18, 0x00	; 0
  cc:	30 e0       	ldi	r19, 0x00	; 0
  ce:	0e 94 00 00 	call	0	; 0x0 <_ZN5Print5writeEPKc>
  d2:	00 c0       	rjmp	.+0      	; 0xd4 <_ZN5Print11printNumberEmh+0x56>
  d4:	88 24       	eor	r8, r8
  d6:	99 24       	eor	r9, r9
  d8:	54 01       	movw	r10, r8
  da:	42 2e       	mov	r4, r18
  dc:	55 24       	eor	r5, r5
  de:	66 24       	eor	r6, r6
  e0:	77 24       	eor	r7, r7
  e2:	01 e0       	ldi	r16, 0x01	; 1
  e4:	10 e0       	ldi	r17, 0x00	; 0
  e6:	0c 0f       	add	r16, r28
  e8:	1d 1f       	adc	r17, r29
  ea:	08 0d       	add	r16, r8
  ec:	19 1d       	adc	r17, r9
  ee:	c7 01       	movw	r24, r14
  f0:	b6 01       	movw	r22, r12
  f2:	a3 01       	movw	r20, r6
  f4:	92 01       	movw	r18, r4
  f6:	0e 94 00 00 	call	0	; 0x0 <_ZN5Print5writeEPKc>
  fa:	f8 01       	movw	r30, r16
  fc:	60 83       	st	Z, r22
  fe:	08 94       	sec
 100:	81 1c       	adc	r8, r1
 102:	91 1c       	adc	r9, r1
 104:	a1 1c       	adc	r10, r1
 106:	b1 1c       	adc	r11, r1
 108:	c7 01       	movw	r24, r14
 10a:	b6 01       	movw	r22, r12
 10c:	a3 01       	movw	r20, r6
 10e:	92 01       	movw	r18, r4
 110:	0e 94 00 00 	call	0	; 0x0 <_ZN5Print5writeEPKc>
 114:	c9 01       	movw	r24, r18
 116:	da 01       	movw	r26, r20
 118:	6c 01       	movw	r12, r24
 11a:	7d 01       	movw	r14, r26
 11c:	c1 14       	cp	r12, r1
 11e:	d1 04       	cpc	r13, r1
 120:	e1 04       	cpc	r14, r1
 122:	f1 04       	cpc	r15, r1
 124:	01 f4       	brne	.+0      	; 0x126 <_ZN5Print11printNumberEmh+0xa8>
 126:	81 e0       	ldi	r24, 0x01	; 1
 128:	e8 2e       	mov	r14, r24
 12a:	f1 2c       	mov	r15, r1
 12c:	ec 0e       	add	r14, r28
 12e:	fd 1e       	adc	r15, r29
 130:	e8 0c       	add	r14, r8
 132:	f9 1c       	adc	r15, r9
 134:	3e 01       	movw	r6, r28
 136:	08 94       	sec
 138:	61 1c       	adc	r6, r1
 13a:	71 1c       	adc	r7, r1
 13c:	d5 01       	movw	r26, r10
 13e:	c4 01       	movw	r24, r8
 140:	01 97       	sbiw	r24, 0x01	; 1
 142:	a1 09       	sbc	r26, r1
 144:	b1 09       	sbc	r27, r1
 146:	6c 01       	movw	r12, r24
 148:	c8 18       	sub	r12, r8
 14a:	d9 08       	sbc	r13, r9
 14c:	00 c0       	rjmp	.+0      	; 0x14e <_ZN5Print11printNumberEmh+0xd0>
 14e:	f6 01       	movw	r30, r12
 150:	ee 0d       	add	r30, r14
 152:	ff 1d       	adc	r31, r15
 154:	40 81       	ld	r20, Z
 156:	4a 30       	cpi	r20, 0x0A	; 10
 158:	00 f4       	brcc	.+0      	; 0x15a <_ZN5Print11printNumberEmh+0xdc>
 15a:	40 5d       	subi	r20, 0xD0	; 208
 15c:	00 c0       	rjmp	.+0      	; 0x15e <_ZN5Print11printNumberEmh+0xe0>
 15e:	49 5c       	subi	r20, 0xC9	; 201
 160:	50 e0       	ldi	r21, 0x00	; 0
 162:	60 e0       	ldi	r22, 0x00	; 0
 164:	70 e0       	ldi	r23, 0x00	; 0
 166:	c1 01       	movw	r24, r2
 168:	20 e0       	ldi	r18, 0x00	; 0
 16a:	30 e0       	ldi	r19, 0x00	; 0
 16c:	0e 94 00 00 	call	0	; 0x0 <_ZN5Print5writeEPKc>
 170:	08 94       	sec
 172:	e1 08       	sbc	r14, r1
 174:	f1 08       	sbc	r15, r1
 176:	6e 14       	cp	r6, r14
 178:	7f 04       	cpc	r7, r15
 17a:	01 f4       	brne	.+0      	; 0x17c <_ZN5Print11printNumberEmh+0xfe>
 17c:	a0 96       	adiw	r28, 0x20	; 32
 17e:	0f b6       	in	r0, 0x3f	; 63
 180:	f8 94       	cli
 182:	de bf       	out	0x3e, r29	; 62
 184:	0f be       	out	0x3f, r0	; 63
 186:	cd bf       	out	0x3d, r28	; 61
 188:	cf 91       	pop	r28
 18a:	df 91       	pop	r29
 18c:	1f 91       	pop	r17
 18e:	0f 91       	pop	r16
 190:	ff 90       	pop	r15
 192:	ef 90       	pop	r14
 194:	df 90       	pop	r13
 196:	cf 90       	pop	r12
 198:	bf 90       	pop	r11
 19a:	af 90       	pop	r10
 19c:	9f 90       	pop	r9
 19e:	8f 90       	pop	r8
 1a0:	7f 90       	pop	r7
 1a2:	6f 90       	pop	r6
 1a4:	5f 90       	pop	r5
 1a6:	4f 90       	pop	r4
 1a8:	3f 90       	pop	r3
 1aa:	2f 90       	pop	r2
 1ac:	08 95       	ret

000001ae <_ZN5Print5printEmi>:
 1ae:	dc 01       	movw	r26, r24
 1b0:	21 15       	cp	r18, r1
 1b2:	31 05       	cpc	r19, r1
 1b4:	01 f4       	brne	.+0      	; 0x1b6 <_ZN5Print5printEmi+0x8>
 1b6:	ed 91       	ld	r30, X+
 1b8:	fc 91       	ld	r31, X
 1ba:	01 90       	ld	r0, Z+
 1bc:	f0 81       	ld	r31, Z
 1be:	e0 2d       	mov	r30, r0
 1c0:	64 2f       	mov	r22, r20
 1c2:	09 95       	icall
 1c4:	08 95       	ret
 1c6:	0e 94 00 00 	call	0	; 0x0 <_ZN5Print5writeEPKc>
 1ca:	08 95       	ret

000001cc <_ZN5Print5printEji>:
 1cc:	ef 92       	push	r14
 1ce:	ff 92       	push	r15
 1d0:	0f 93       	push	r16
 1d2:	1f 93       	push	r17
 1d4:	9a 01       	movw	r18, r20
 1d6:	7b 01       	movw	r14, r22
 1d8:	00 e0       	ldi	r16, 0x00	; 0
 1da:	10 e0       	ldi	r17, 0x00	; 0
 1dc:	b8 01       	movw	r22, r16
 1de:	a7 01       	movw	r20, r14
 1e0:	0e 94 00 00 	call	0	; 0x0 <_ZN5Print5writeEPKc>
 1e4:	1f 91       	pop	r17
 1e6:	0f 91       	pop	r16
 1e8:	ff 90       	pop	r15
 1ea:	ef 90       	pop	r14
 1ec:	08 95       	ret

000001ee <_ZN5Print5printEhi>:
 1ee:	ef 92       	push	r14
 1f0:	ff 92       	push	r15
 1f2:	0f 93       	push	r16
 1f4:	1f 93       	push	r17
 1f6:	9a 01       	movw	r18, r20
 1f8:	e6 2e       	mov	r14, r22
 1fa:	ff 24       	eor	r15, r15
 1fc:	00 e0       	ldi	r16, 0x00	; 0
 1fe:	10 e0       	ldi	r17, 0x00	; 0
 200:	b8 01       	movw	r22, r16
 202:	a7 01       	movw	r20, r14
 204:	0e 94 00 00 	call	0	; 0x0 <_ZN5Print5writeEPKc>
 208:	1f 91       	pop	r17
 20a:	0f 91       	pop	r16
 20c:	ff 90       	pop	r15
 20e:	ef 90       	pop	r14
 210:	08 95       	ret

00000212 <_ZN5Print5printEli>:
 212:	ef 92       	push	r14
 214:	ff 92       	push	r15
 216:	0f 93       	push	r16
 218:	1f 93       	push	r17
 21a:	cf 93       	push	r28
 21c:	df 93       	push	r29
 21e:	ec 01       	movw	r28, r24
 220:	7a 01       	movw	r14, r20
 222:	8b 01       	movw	r16, r22
 224:	21 15       	cp	r18, r1
 226:	31 05       	cpc	r19, r1
 228:	01 f4       	brne	.+0      	; 0x22a <_ZN5Print5printEli+0x18>
 22a:	e8 81       	ld	r30, Y
 22c:	f9 81       	ldd	r31, Y+1	; 0x01
 22e:	01 90       	ld	r0, Z+
 230:	f0 81       	ld	r31, Z
 232:	e0 2d       	mov	r30, r0
 234:	64 2f       	mov	r22, r20
 236:	09 95       	icall
 238:	00 c0       	rjmp	.+0      	; 0x23a <_ZN5Print5printEli+0x28>
 23a:	2a 30       	cpi	r18, 0x0A	; 10
 23c:	31 05       	cpc	r19, r1
 23e:	01 f4       	brne	.+0      	; 0x240 <_ZN5Print5printEli+0x2e>
 240:	77 ff       	sbrs	r23, 7
 242:	00 c0       	rjmp	.+0      	; 0x244 <_ZN5Print5printEli+0x32>
 244:	4d e2       	ldi	r20, 0x2D	; 45
 246:	50 e0       	ldi	r21, 0x00	; 0
 248:	60 e0       	ldi	r22, 0x00	; 0
 24a:	70 e0       	ldi	r23, 0x00	; 0
 24c:	20 e0       	ldi	r18, 0x00	; 0
 24e:	30 e0       	ldi	r19, 0x00	; 0
 250:	0e 94 00 00 	call	0	; 0x0 <_ZN5Print5writeEPKc>
 254:	10 95       	com	r17
 256:	00 95       	com	r16
 258:	f0 94       	com	r15
 25a:	e0 94       	com	r14
 25c:	e1 1c       	adc	r14, r1
 25e:	f1 1c       	adc	r15, r1
 260:	01 1d       	adc	r16, r1
 262:	11 1d       	adc	r17, r1
 264:	ce 01       	movw	r24, r28
 266:	b8 01       	movw	r22, r16
 268:	a7 01       	movw	r20, r14
 26a:	2a e0       	ldi	r18, 0x0A	; 10
 26c:	0e 94 00 00 	call	0	; 0x0 <_ZN5Print5writeEPKc>
 270:	df 91       	pop	r29
 272:	cf 91       	pop	r28
 274:	1f 91       	pop	r17
 276:	0f 91       	pop	r16
 278:	ff 90       	pop	r15
 27a:	ef 90       	pop	r14
 27c:	08 95       	ret

0000027e <_ZN5Print5printEii>:
 27e:	ef 92       	push	r14
 280:	ff 92       	push	r15
 282:	0f 93       	push	r16
 284:	1f 93       	push	r17
 286:	7b 01       	movw	r14, r22
 288:	9a 01       	movw	r18, r20
 28a:	00 27       	eor	r16, r16
 28c:	f7 fc       	sbrc	r15, 7
 28e:	00 95       	com	r16
 290:	10 2f       	mov	r17, r16
 292:	b8 01       	movw	r22, r16
 294:	a7 01       	movw	r20, r14
 296:	0e 94 00 00 	call	0	; 0x0 <_ZN5Print5writeEPKc>
 29a:	1f 91       	pop	r17
 29c:	0f 91       	pop	r16
 29e:	ff 90       	pop	r15
 2a0:	ef 90       	pop	r14
 2a2:	08 95       	ret

000002a4 <_ZN5Print5printEci>:
 2a4:	ef 92       	push	r14
 2a6:	ff 92       	push	r15
 2a8:	0f 93       	push	r16
 2aa:	1f 93       	push	r17
 2ac:	9a 01       	movw	r18, r20
 2ae:	e6 2e       	mov	r14, r22
 2b0:	ff 24       	eor	r15, r15
 2b2:	00 e0       	ldi	r16, 0x00	; 0
 2b4:	10 e0       	ldi	r17, 0x00	; 0
 2b6:	b8 01       	movw	r22, r16
 2b8:	a7 01       	movw	r20, r14
 2ba:	0e 94 00 00 	call	0	; 0x0 <_ZN5Print5writeEPKc>
 2be:	1f 91       	pop	r17
 2c0:	0f 91       	pop	r16
 2c2:	ff 90       	pop	r15
 2c4:	ef 90       	pop	r14
 2c6:	08 95       	ret

000002c8 <_ZN5Print7printlnEv>:
 2c8:	0f 93       	push	r16
 2ca:	1f 93       	push	r17
 2cc:	8c 01       	movw	r16, r24
 2ce:	4d e0       	ldi	r20, 0x0D	; 13
 2d0:	50 e0       	ldi	r21, 0x00	; 0
 2d2:	60 e0       	ldi	r22, 0x00	; 0
 2d4:	70 e0       	ldi	r23, 0x00	; 0
 2d6:	20 e0       	ldi	r18, 0x00	; 0
 2d8:	30 e0       	ldi	r19, 0x00	; 0
 2da:	0e 94 00 00 	call	0	; 0x0 <_ZN5Print5writeEPKc>
 2de:	c8 01       	movw	r24, r16
 2e0:	4a e0       	ldi	r20, 0x0A	; 10
 2e2:	50 e0       	ldi	r21, 0x00	; 0
 2e4:	60 e0       	ldi	r22, 0x00	; 0
 2e6:	70 e0       	ldi	r23, 0x00	; 0
 2e8:	20 e0       	ldi	r18, 0x00	; 0
 2ea:	30 e0       	ldi	r19, 0x00	; 0
 2ec:	0e 94 00 00 	call	0	; 0x0 <_ZN5Print5writeEPKc>
 2f0:	1f 91       	pop	r17
 2f2:	0f 91       	pop	r16
 2f4:	08 95       	ret

000002f6 <_ZN5Print7printlnEmi>:
 2f6:	0f 93       	push	r16
 2f8:	1f 93       	push	r17
 2fa:	8c 01       	movw	r16, r24
 2fc:	0e 94 00 00 	call	0	; 0x0 <_ZN5Print5writeEPKc>
 300:	c8 01       	movw	r24, r16
 302:	0e 94 00 00 	call	0	; 0x0 <_ZN5Print5writeEPKc>
 306:	1f 91       	pop	r17
 308:	0f 91       	pop	r16
 30a:	08 95       	ret

0000030c <_ZN5Print7printlnEji>:
 30c:	cf 92       	push	r12
 30e:	df 92       	push	r13
 310:	ef 92       	push	r14
 312:	ff 92       	push	r15
 314:	0f 93       	push	r16
 316:	1f 93       	push	r17
 318:	8c 01       	movw	r16, r24
 31a:	9a 01       	movw	r18, r20
 31c:	6b 01       	movw	r12, r22
 31e:	ee 24       	eor	r14, r14
 320:	ff 24       	eor	r15, r15
 322:	b7 01       	movw	r22, r14
 324:	a6 01       	movw	r20, r12
 326:	0e 94 00 00 	call	0	; 0x0 <_ZN5Print5writeEPKc>
 32a:	c8 01       	movw	r24, r16
 32c:	0e 94 00 00 	call	0	; 0x0 <_ZN5Print5writeEPKc>
 330:	1f 91       	pop	r17
 332:	0f 91       	pop	r16
 334:	ff 90       	pop	r15
 336:	ef 90       	pop	r14
 338:	df 90       	pop	r13
 33a:	cf 90       	pop	r12
 33c:	08 95       	ret

0000033e <_ZN5Print7printlnEhi>:
 33e:	cf 92       	push	r12
 340:	df 92       	push	r13
 342:	ef 92       	push	r14
 344:	ff 92       	push	r15
 346:	0f 93       	push	r16
 348:	1f 93       	push	r17
 34a:	8c 01       	movw	r16, r24
 34c:	9a 01       	movw	r18, r20
 34e:	c6 2e       	mov	r12, r22
 350:	dd 24       	eor	r13, r13
 352:	ee 24       	eor	r14, r14
 354:	ff 24       	eor	r15, r15
 356:	b7 01       	movw	r22, r14
 358:	a6 01       	movw	r20, r12
 35a:	0e 94 00 00 	call	0	; 0x0 <_ZN5Print5writeEPKc>
 35e:	c8 01       	movw	r24, r16
 360:	0e 94 00 00 	call	0	; 0x0 <_ZN5Print5writeEPKc>
 364:	1f 91       	pop	r17
 366:	0f 91       	pop	r16
 368:	ff 90       	pop	r15
 36a:	ef 90       	pop	r14
 36c:	df 90       	pop	r13
 36e:	cf 90       	pop	r12
 370:	08 95       	ret

00000372 <_ZN5Print7printlnEPKc>:
 372:	0f 93       	push	r16
 374:	1f 93       	push	r17
 376:	8c 01       	movw	r16, r24
 378:	0e 94 00 00 	call	0	; 0x0 <_ZN5Print5writeEPKc>
 37c:	c8 01       	movw	r24, r16
 37e:	0e 94 00 00 	call	0	; 0x0 <_ZN5Print5writeEPKc>
 382:	1f 91       	pop	r17
 384:	0f 91       	pop	r16
 386:	08 95       	ret

00000388 <_ZN5Print7printlnEli>:
 388:	0f 93       	push	r16
 38a:	1f 93       	push	r17
 38c:	8c 01       	movw	r16, r24
 38e:	0e 94 00 00 	call	0	; 0x0 <_ZN5Print5writeEPKc>
 392:	c8 01       	movw	r24, r16
 394:	0e 94 00 00 	call	0	; 0x0 <_ZN5Print5writeEPKc>
 398:	1f 91       	pop	r17
 39a:	0f 91       	pop	r16
 39c:	08 95       	ret

0000039e <_ZN5Print7printlnEii>:
 39e:	cf 92       	push	r12
 3a0:	df 92       	push	r13
 3a2:	ef 92       	push	r14
 3a4:	ff 92       	push	r15
 3a6:	0f 93       	push	r16
 3a8:	1f 93       	push	r17
 3aa:	8c 01       	movw	r16, r24
 3ac:	6b 01       	movw	r12, r22
 3ae:	9a 01       	movw	r18, r20
 3b0:	ee 24       	eor	r14, r14
 3b2:	d7 fc       	sbrc	r13, 7
 3b4:	e0 94       	com	r14
 3b6:	fe 2c       	mov	r15, r14
 3b8:	b7 01       	movw	r22, r14
 3ba:	a6 01       	movw	r20, r12
 3bc:	0e 94 00 00 	call	0	; 0x0 <_ZN5Print5writeEPKc>
 3c0:	c8 01       	movw	r24, r16
 3c2:	0e 94 00 00 	call	0	; 0x0 <_ZN5Print5writeEPKc>
 3c6:	1f 91       	pop	r17
 3c8:	0f 91       	pop	r16
 3ca:	ff 90       	pop	r15
 3cc:	ef 90       	pop	r14
 3ce:	df 90       	pop	r13
 3d0:	cf 90       	pop	r12
 3d2:	08 95       	ret

000003d4 <_ZN5Print7printlnEci>:
 3d4:	cf 92       	push	r12
 3d6:	df 92       	push	r13
 3d8:	ef 92       	push	r14
 3da:	ff 92       	push	r15
 3dc:	0f 93       	push	r16
 3de:	1f 93       	push	r17
 3e0:	8c 01       	movw	r16, r24
 3e2:	9a 01       	movw	r18, r20
 3e4:	c6 2e       	mov	r12, r22
 3e6:	dd 24       	eor	r13, r13
 3e8:	ee 24       	eor	r14, r14
 3ea:	ff 24       	eor	r15, r15
 3ec:	b7 01       	movw	r22, r14
 3ee:	a6 01       	movw	r20, r12
 3f0:	0e 94 00 00 	call	0	; 0x0 <_ZN5Print5writeEPKc>
 3f4:	c8 01       	movw	r24, r16
 3f6:	0e 94 00 00 	call	0	; 0x0 <_ZN5Print5writeEPKc>
 3fa:	1f 91       	pop	r17
 3fc:	0f 91       	pop	r16
 3fe:	ff 90       	pop	r15
 400:	ef 90       	pop	r14
 402:	df 90       	pop	r13
 404:	cf 90       	pop	r12
 406:	08 95       	ret

00000408 <_ZN5Print10printFloatEdh>:
 408:	9f 92       	push	r9
 40a:	af 92       	push	r10
 40c:	bf 92       	push	r11
 40e:	cf 92       	push	r12
 410:	df 92       	push	r13
 412:	ef 92       	push	r14
 414:	ff 92       	push	r15
 416:	0f 93       	push	r16
 418:	1f 93       	push	r17
 41a:	cf 93       	push	r28
 41c:	df 93       	push	r29
 41e:	ec 01       	movw	r28, r24
 420:	7a 01       	movw	r14, r20
 422:	8b 01       	movw	r16, r22
 424:	92 2e       	mov	r9, r18
 426:	cb 01       	movw	r24, r22
 428:	ba 01       	movw	r22, r20
 42a:	20 e0       	ldi	r18, 0x00	; 0
 42c:	30 e0       	ldi	r19, 0x00	; 0
 42e:	40 e0       	ldi	r20, 0x00	; 0
 430:	50 e0       	ldi	r21, 0x00	; 0
 432:	0e 94 00 00 	call	0	; 0x0 <_ZN5Print5writeEPKc>
 436:	88 23       	and	r24, r24
 438:	04 f4       	brge	.+0      	; 0x43a <_ZN5Print10printFloatEdh+0x32>
 43a:	ce 01       	movw	r24, r28
 43c:	4d e2       	ldi	r20, 0x2D	; 45
 43e:	50 e0       	ldi	r21, 0x00	; 0
 440:	60 e0       	ldi	r22, 0x00	; 0
 442:	70 e0       	ldi	r23, 0x00	; 0
 444:	20 e0       	ldi	r18, 0x00	; 0
 446:	30 e0       	ldi	r19, 0x00	; 0
 448:	0e 94 00 00 	call	0	; 0x0 <_ZN5Print5writeEPKc>
 44c:	17 fb       	bst	r17, 7
 44e:	10 95       	com	r17
 450:	17 f9       	bld	r17, 7
 452:	10 95       	com	r17
 454:	20 e0       	ldi	r18, 0x00	; 0
 456:	30 e0       	ldi	r19, 0x00	; 0
 458:	40 e0       	ldi	r20, 0x00	; 0
 45a:	5f e3       	ldi	r21, 0x3F	; 63
 45c:	aa 24       	eor	r10, r10
 45e:	00 c0       	rjmp	.+0      	; 0x460 <_ZN5Print10printFloatEdh+0x58>
 460:	ca 01       	movw	r24, r20
 462:	b9 01       	movw	r22, r18
 464:	20 e0       	ldi	r18, 0x00	; 0
 466:	30 e0       	ldi	r19, 0x00	; 0
 468:	40 e2       	ldi	r20, 0x20	; 32
 46a:	51 e4       	ldi	r21, 0x41	; 65
 46c:	0e 94 00 00 	call	0	; 0x0 <_ZN5Print5writeEPKc>
 470:	9b 01       	movw	r18, r22
 472:	ac 01       	movw	r20, r24
 474:	a3 94       	inc	r10
 476:	a9 14       	cp	r10, r9
 478:	00 f0       	brcs	.+0      	; 0x47a <_ZN5Print10printFloatEdh+0x72>
 47a:	c8 01       	movw	r24, r16
 47c:	b7 01       	movw	r22, r14
 47e:	0e 94 00 00 	call	0	; 0x0 <_ZN5Print5writeEPKc>
 482:	5b 01       	movw	r10, r22
 484:	6c 01       	movw	r12, r24
 486:	0e 94 00 00 	call	0	; 0x0 <_ZN5Print5writeEPKc>
 48a:	7b 01       	movw	r14, r22
 48c:	8c 01       	movw	r16, r24
 48e:	ce 01       	movw	r24, r28
 490:	b8 01       	movw	r22, r16
 492:	a7 01       	movw	r20, r14
 494:	2a e0       	ldi	r18, 0x0A	; 10
 496:	30 e0       	ldi	r19, 0x00	; 0
 498:	0e 94 00 00 	call	0	; 0x0 <_ZN5Print5writeEPKc>
 49c:	99 20       	and	r9, r9
 49e:	01 f0       	breq	.+0      	; 0x4a0 <_ZN5Print10printFloatEdh+0x98>
 4a0:	ce 01       	movw	r24, r28
 4a2:	60 e0       	ldi	r22, 0x00	; 0
 4a4:	70 e0       	ldi	r23, 0x00	; 0
 4a6:	0e 94 00 00 	call	0	; 0x0 <_ZN5Print5writeEPKc>
 4aa:	c8 01       	movw	r24, r16
 4ac:	b7 01       	movw	r22, r14
 4ae:	0e 94 00 00 	call	0	; 0x0 <_ZN5Print5writeEPKc>
 4b2:	9b 01       	movw	r18, r22
 4b4:	ac 01       	movw	r20, r24
 4b6:	c6 01       	movw	r24, r12
 4b8:	b5 01       	movw	r22, r10
 4ba:	0e 94 00 00 	call	0	; 0x0 <_ZN5Print5writeEPKc>
 4be:	00 c0       	rjmp	.+0      	; 0x4c0 <_ZN5Print10printFloatEdh+0xb8>
 4c0:	20 e0       	ldi	r18, 0x00	; 0
 4c2:	30 e0       	ldi	r19, 0x00	; 0
 4c4:	40 e2       	ldi	r20, 0x20	; 32
 4c6:	51 e4       	ldi	r21, 0x41	; 65
 4c8:	0e 94 00 00 	call	0	; 0x0 <_ZN5Print5writeEPKc>
 4cc:	7b 01       	movw	r14, r22
 4ce:	8c 01       	movw	r16, r24
 4d0:	0e 94 00 00 	call	0	; 0x0 <_ZN5Print5writeEPKc>
 4d4:	5b 01       	movw	r10, r22
 4d6:	6c 01       	movw	r12, r24
 4d8:	cc 24       	eor	r12, r12
 4da:	b7 fc       	sbrc	r11, 7
 4dc:	c0 94       	com	r12
 4de:	dc 2c       	mov	r13, r12
 4e0:	ce 01       	movw	r24, r28
 4e2:	b6 01       	movw	r22, r12
 4e4:	a5 01       	movw	r20, r10
 4e6:	2a e0       	ldi	r18, 0x0A	; 10
 4e8:	30 e0       	ldi	r19, 0x00	; 0
 4ea:	0e 94 00 00 	call	0	; 0x0 <_ZN5Print5writeEPKc>
 4ee:	c6 01       	movw	r24, r12
 4f0:	b5 01       	movw	r22, r10
 4f2:	0e 94 00 00 	call	0	; 0x0 <_ZN5Print5writeEPKc>
 4f6:	9b 01       	movw	r18, r22
 4f8:	ac 01       	movw	r20, r24
 4fa:	c8 01       	movw	r24, r16
 4fc:	b7 01       	movw	r22, r14
 4fe:	0e 94 00 00 	call	0	; 0x0 <_ZN5Print5writeEPKc>
 502:	9a 94       	dec	r9
 504:	99 20       	and	r9, r9
 506:	01 f4       	brne	.+0      	; 0x508 <_ZN5Print10printFloatEdh+0x100>
 508:	df 91       	pop	r29
 50a:	cf 91       	pop	r28
 50c:	1f 91       	pop	r17
 50e:	0f 91       	pop	r16
 510:	ff 90       	pop	r15
 512:	ef 90       	pop	r14
 514:	df 90       	pop	r13
 516:	cf 90       	pop	r12
 518:	bf 90       	pop	r11
 51a:	af 90       	pop	r10
 51c:	9f 90       	pop	r9
 51e:	08 95       	ret

00000520 <_ZN5Print5printEdi>:
 520:	0e 94 00 00 	call	0	; 0x0 <_ZN5Print5writeEPKc>
 524:	08 95       	ret

00000526 <_ZN5Print7printlnEdi>:
 526:	0f 93       	push	r16
 528:	1f 93       	push	r17
 52a:	8c 01       	movw	r16, r24
 52c:	0e 94 00 00 	call	0	; 0x0 <_ZN5Print5writeEPKc>
 530:	c8 01       	movw	r24, r16
 532:	0e 94 00 00 	call	0	; 0x0 <_ZN5Print5writeEPKc>
 536:	1f 91       	pop	r17
 538:	0f 91       	pop	r16
 53a:	08 95       	ret

Tone.o:     file format elf32-avr

Sections:
Idx Name          Size      VMA       LMA       File off  Algn
  0 .text         0000050e  00000000  00000000  00000034  2**0
                  CONTENTS, ALLOC, LOAD, RELOC, READONLY, CODE
  1 .data         00000001  00000000  00000000  00000542  2**0
                  CONTENTS, ALLOC, LOAD, DATA
  2 .bss          00000015  00000000  00000000  00000543  2**0
                  ALLOC
  3 .progmem.data 00000001  00000000  00000000  00000543  2**0
                  CONTENTS, ALLOC, LOAD, READONLY, DATA

Disassembly of section .text:

00000000 <__vector_7>:
   0:	1f 92       	push	r1
   2:	0f 92       	push	r0
   4:	0f b6       	in	r0, 0x3f	; 63
   6:	0f 92       	push	r0
   8:	11 24       	eor	r1, r1
   a:	8f 93       	push	r24
   c:	9f 93       	push	r25
   e:	af 93       	push	r26
  10:	bf 93       	push	r27
  12:	ef 93       	push	r30
  14:	ff 93       	push	r31
  16:	80 91 00 00 	lds	r24, 0x0000
  1a:	90 91 00 00 	lds	r25, 0x0000
  1e:	a0 91 00 00 	lds	r26, 0x0000
  22:	b0 91 00 00 	lds	r27, 0x0000
  26:	e0 91 00 00 	lds	r30, 0x0000
  2a:	f0 91 00 00 	lds	r31, 0x0000
  2e:	00 97       	sbiw	r24, 0x00	; 0
  30:	a1 05       	cpc	r26, r1
  32:	b1 05       	cpc	r27, r1
  34:	01 f0       	breq	.+0      	; 0x36 <__vector_7+0x36>
  36:	80 81       	ld	r24, Z
  38:	90 91 00 00 	lds	r25, 0x0000
  3c:	89 27       	eor	r24, r25
  3e:	80 83       	st	Z, r24
  40:	80 91 00 00 	lds	r24, 0x0000
  44:	90 91 00 00 	lds	r25, 0x0000
  48:	a0 91 00 00 	lds	r26, 0x0000
  4c:	b0 91 00 00 	lds	r27, 0x0000
  50:	18 16       	cp	r1, r24
  52:	19 06       	cpc	r1, r25
  54:	1a 06       	cpc	r1, r26
  56:	1b 06       	cpc	r1, r27
  58:	04 f4       	brge	.+0      	; 0x5a <__vector_7+0x5a>
  5a:	80 91 00 00 	lds	r24, 0x0000
  5e:	90 91 00 00 	lds	r25, 0x0000
  62:	a0 91 00 00 	lds	r26, 0x0000
  66:	b0 91 00 00 	lds	r27, 0x0000
  6a:	01 97       	sbiw	r24, 0x01	; 1
  6c:	a1 09       	sbc	r26, r1
  6e:	b1 09       	sbc	r27, r1
  70:	80 93 00 00 	sts	0x0000, r24
  74:	90 93 00 00 	sts	0x0000, r25
  78:	a0 93 00 00 	sts	0x0000, r26
  7c:	b0 93 00 00 	sts	0x0000, r27
  80:	00 c0       	rjmp	.+0      	; 0x82 <__vector_7+0x82>
  82:	10 92 70 00 	sts	0x0070, r1
  86:	90 81       	ld	r25, Z
  88:	80 91 00 00 	lds	r24, 0x0000
  8c:	80 95       	com	r24
  8e:	89 23       	and	r24, r25
  90:	80 83       	st	Z, r24
  92:	ff 91       	pop	r31
  94:	ef 91       	pop	r30
  96:	bf 91       	pop	r27
  98:	af 91       	pop	r26
  9a:	9f 91       	pop	r25
  9c:	8f 91       	pop	r24
  9e:	0f 90       	pop	r0
  a0:	0f be       	out	0x3f, r0	; 63
  a2:	0f 90       	pop	r0
  a4:	1f 90       	pop	r1
  a6:	18 95       	reti

000000a8 <_Z6noToneh>:
  a8:	28 2f       	mov	r18, r24
  aa:	80 91 00 00 	lds	r24, 0x0000
  ae:	82 17       	cp	r24, r18
  b0:	01 f4       	brne	.+0      	; 0xb2 <_Z6noToneh+0xa>
  b2:	e0 e0       	ldi	r30, 0x00	; 0
  b4:	f0 e0       	ldi	r31, 0x00	; 0
  b6:	94 91       	lpm	r25, Z+
  b8:	8f ef       	ldi	r24, 0xFF	; 255
  ba:	80 93 00 00 	sts	0x0000, r24
  be:	91 30       	cpi	r25, 0x01	; 1
  c0:	01 f0       	breq	.+0      	; 0xc2 <_Z6noToneh+0x1a>
  c2:	92 30       	cpi	r25, 0x02	; 2
  c4:	01 f0       	breq	.+0      	; 0xc6 <_Z6noToneh+0x1e>
  c6:	99 23       	and	r25, r25
  c8:	01 f4       	brne	.+0      	; 0xca <_Z6noToneh+0x22>
  ca:	10 92 6e 00 	sts	0x006E, r1
  ce:	00 c0       	rjmp	.+0      	; 0xd0 <_Z6noToneh+0x28>
  d0:	10 92 6f 00 	sts	0x006F, r1
  d4:	00 c0       	rjmp	.+0      	; 0xd6 <_Z6noToneh+0x2e>
  d6:	10 92 70 00 	sts	0x0070, r1
  da:	82 2f       	mov	r24, r18
  dc:	60 e0       	ldi	r22, 0x00	; 0
  de:	0e 94 00 00 	call	0	; 0x0 <__vector_7>
  e2:	08 95       	ret

000000e4 <_Z4tonehjm>:
  e4:	2f 92       	push	r2
  e6:	3f 92       	push	r3
  e8:	5f 92       	push	r5
  ea:	6f 92       	push	r6
  ec:	7f 92       	push	r7
  ee:	8f 92       	push	r8
  f0:	9f 92       	push	r9
  f2:	af 92       	push	r10
  f4:	bf 92       	push	r11
  f6:	cf 92       	push	r12
  f8:	df 92       	push	r13
  fa:	ef 92       	push	r14
  fc:	ff 92       	push	r15
  fe:	0f 93       	push	r16
 100:	1f 93       	push	r17
 102:	df 93       	push	r29
 104:	cf 93       	push	r28
 106:	00 d0       	rcall	.+0      	; 0x108 <_Z4tonehjm+0x24>
 108:	00 d0       	rcall	.+0      	; 0x10a <_Z4tonehjm+0x26>
 10a:	cd b7       	in	r28, 0x3d	; 61
 10c:	de b7       	in	r29, 0x3e	; 62
 10e:	a8 2f       	mov	r26, r24
 110:	1b 01       	movw	r2, r22
 112:	29 83       	std	Y+1, r18	; 0x01
 114:	3a 83       	std	Y+2, r19	; 0x02
 116:	4b 83       	std	Y+3, r20	; 0x03
 118:	5c 83       	std	Y+4, r21	; 0x04
 11a:	80 91 00 00 	lds	r24, 0x0000
 11e:	8a 17       	cp	r24, r26
 120:	01 f4       	brne	.+0      	; 0x122 <_Z4tonehjm+0x3e>
 122:	e0 e0       	ldi	r30, 0x00	; 0
 124:	f0 e0       	ldi	r31, 0x00	; 0
 126:	54 90       	lpm	r5, Z+
 128:	00 c0       	rjmp	.+0      	; 0x12a <_Z4tonehjm+0x46>
 12a:	8f 3f       	cpi	r24, 0xFF	; 255
 12c:	01 f0       	breq	.+0      	; 0x12e <_Z4tonehjm+0x4a>
 12e:	00 c0       	rjmp	.+0      	; 0x130 <_Z4tonehjm+0x4c>
 130:	a0 93 00 00 	sts	0x0000, r26
 134:	e0 e0       	ldi	r30, 0x00	; 0
 136:	f0 e0       	ldi	r31, 0x00	; 0
 138:	54 90       	lpm	r5, Z+
 13a:	2f ef       	ldi	r18, 0xFF	; 255
 13c:	52 16       	cp	r5, r18
 13e:	01 f4       	brne	.+0      	; 0x140 <_Z4tonehjm+0x5c>
 140:	00 c0       	rjmp	.+0      	; 0x142 <_Z4tonehjm+0x5e>
 142:	81 e0       	ldi	r24, 0x01	; 1
 144:	58 16       	cp	r5, r24
 146:	01 f0       	breq	.+0      	; 0x148 <_Z4tonehjm+0x64>
 148:	92 e0       	ldi	r25, 0x02	; 2
 14a:	59 16       	cp	r5, r25
 14c:	01 f4       	brne	.+0      	; 0x14e <_Z4tonehjm+0x6a>
 14e:	00 c0       	rjmp	.+0      	; 0x150 <_Z4tonehjm+0x6c>
 150:	55 20       	and	r5, r5
 152:	01 f0       	breq	.+0      	; 0x154 <_Z4tonehjm+0x70>
 154:	00 c0       	rjmp	.+0      	; 0x156 <_Z4tonehjm+0x72>
 156:	14 bc       	out	0x24, r1	; 36
 158:	15 bc       	out	0x25, r1	; 37
 15a:	84 b5       	in	r24, 0x24	; 36
 15c:	82 60       	ori	r24, 0x02	; 2
 15e:	84 bd       	out	0x24, r24	; 36
 160:	85 b5       	in	r24, 0x25	; 37
 162:	81 60       	ori	r24, 0x01	; 1
 164:	85 bd       	out	0x25, r24	; 37
 166:	2a 2f       	mov	r18, r26
 168:	30 e0       	ldi	r19, 0x00	; 0
 16a:	f9 01       	movw	r30, r18
 16c:	e0 50       	subi	r30, 0x00	; 0
 16e:	f0 40       	sbci	r31, 0x00	; 0
 170:	e4 91       	lpm	r30, Z+
 172:	f0 e0       	ldi	r31, 0x00	; 0
 174:	ee 0f       	add	r30, r30
 176:	ff 1f       	adc	r31, r31
 178:	e0 50       	subi	r30, 0x00	; 0
 17a:	f0 40       	sbci	r31, 0x00	; 0
 17c:	85 91       	lpm	r24, Z+
 17e:	94 91       	lpm	r25, Z+
 180:	90 93 00 00 	sts	0x0000, r25
 184:	80 93 00 00 	sts	0x0000, r24
 188:	20 50       	subi	r18, 0x00	; 0
 18a:	30 40       	sbci	r19, 0x00	; 0
 18c:	f9 01       	movw	r30, r18
 18e:	84 91       	lpm	r24, Z+
 190:	80 93 00 00 	sts	0x0000, r24
 194:	00 c0       	rjmp	.+0      	; 0x196 <_Z4tonehjm+0xb2>
 196:	10 92 80 00 	sts	0x0080, r1
 19a:	10 92 81 00 	sts	0x0081, r1
 19e:	80 91 81 00 	lds	r24, 0x0081
 1a2:	88 60       	ori	r24, 0x08	; 8
 1a4:	80 93 81 00 	sts	0x0081, r24
 1a8:	80 91 81 00 	lds	r24, 0x0081
 1ac:	81 60       	ori	r24, 0x01	; 1
 1ae:	80 93 81 00 	sts	0x0081, r24
 1b2:	2a 2f       	mov	r18, r26
 1b4:	30 e0       	ldi	r19, 0x00	; 0
 1b6:	f9 01       	movw	r30, r18
 1b8:	e0 50       	subi	r30, 0x00	; 0
 1ba:	f0 40       	sbci	r31, 0x00	; 0
 1bc:	e4 91       	lpm	r30, Z+
 1be:	f0 e0       	ldi	r31, 0x00	; 0
 1c0:	ee 0f       	add	r30, r30
 1c2:	ff 1f       	adc	r31, r31
 1c4:	e0 50       	subi	r30, 0x00	; 0
 1c6:	f0 40       	sbci	r31, 0x00	; 0
 1c8:	85 91       	lpm	r24, Z+
 1ca:	94 91       	lpm	r25, Z+
 1cc:	90 93 00 00 	sts	0x0000, r25
 1d0:	80 93 00 00 	sts	0x0000, r24
 1d4:	20 50       	subi	r18, 0x00	; 0
 1d6:	30 40       	sbci	r19, 0x00	; 0
 1d8:	f9 01       	movw	r30, r18
 1da:	84 91       	lpm	r24, Z+
 1dc:	80 93 00 00 	sts	0x0000, r24
 1e0:	00 c0       	rjmp	.+0      	; 0x1e2 <_Z4tonehjm+0xfe>
 1e2:	10 92 b0 00 	sts	0x00B0, r1
 1e6:	10 92 b1 00 	sts	0x00B1, r1
 1ea:	80 91 b0 00 	lds	r24, 0x00B0
 1ee:	82 60       	ori	r24, 0x02	; 2
 1f0:	80 93 b0 00 	sts	0x00B0, r24
 1f4:	80 91 b1 00 	lds	r24, 0x00B1
 1f8:	81 60       	ori	r24, 0x01	; 1
 1fa:	80 93 b1 00 	sts	0x00B1, r24
 1fe:	2a 2f       	mov	r18, r26
 200:	30 e0       	ldi	r19, 0x00	; 0
 202:	f9 01       	movw	r30, r18
 204:	e0 50       	subi	r30, 0x00	; 0
 206:	f0 40       	sbci	r31, 0x00	; 0
 208:	e4 91       	lpm	r30, Z+
 20a:	f0 e0       	ldi	r31, 0x00	; 0
 20c:	ee 0f       	add	r30, r30
 20e:	ff 1f       	adc	r31, r31
 210:	e0 50       	subi	r30, 0x00	; 0
 212:	f0 40       	sbci	r31, 0x00	; 0
 214:	85 91       	lpm	r24, Z+
 216:	94 91       	lpm	r25, Z+
 218:	90 93 00 00 	sts	0x0000, r25
 21c:	80 93 00 00 	sts	0x0000, r24
 220:	20 50       	subi	r18, 0x00	; 0
 222:	30 40       	sbci	r19, 0x00	; 0
 224:	f9 01       	movw	r30, r18
 226:	84 91       	lpm	r24, Z+
 228:	80 93 00 00 	sts	0x0000, r24
 22c:	00 c0       	rjmp	.+0      	; 0x22e <_Z4tonehjm+0x14a>
 22e:	57 fc       	sbrc	r5, 7
 230:	00 c0       	rjmp	.+0      	; 0x232 <_Z4tonehjm+0x14e>
 232:	8a 2f       	mov	r24, r26
 234:	61 e0       	ldi	r22, 0x01	; 1
 236:	0e 94 00 00 	call	0	; 0x0 <__vector_7>
 23a:	55 20       	and	r5, r5
 23c:	01 f0       	breq	.+0      	; 0x23e <_Z4tonehjm+0x15a>
 23e:	f2 e0       	ldi	r31, 0x02	; 2
 240:	5f 16       	cp	r5, r31
 242:	01 f0       	breq	.+0      	; 0x244 <_Z4tonehjm+0x160>
 244:	00 c0       	rjmp	.+0      	; 0x246 <_Z4tonehjm+0x162>
 246:	31 01       	movw	r6, r2
 248:	88 24       	eor	r8, r8
 24a:	99 24       	eor	r9, r9
 24c:	60 e0       	ldi	r22, 0x00	; 0
 24e:	72 e1       	ldi	r23, 0x12	; 18
 250:	8a e7       	ldi	r24, 0x7A	; 122
 252:	90 e0       	ldi	r25, 0x00	; 0
 254:	a4 01       	movw	r20, r8
 256:	93 01       	movw	r18, r6
 258:	0e 94 00 00 	call	0	; 0x0 <__vector_7>
 25c:	59 01       	movw	r10, r18
 25e:	6a 01       	movw	r12, r20
 260:	86 01       	movw	r16, r12
 262:	75 01       	movw	r14, r10
 264:	08 94       	sec
 266:	e1 08       	sbc	r14, r1
 268:	f1 08       	sbc	r15, r1
 26a:	01 09       	sbc	r16, r1
 26c:	11 09       	sbc	r17, r1
 26e:	2f ef       	ldi	r18, 0xFF	; 255
 270:	e2 16       	cp	r14, r18
 272:	f1 04       	cpc	r15, r1
 274:	01 05       	cpc	r16, r1
 276:	11 05       	cpc	r17, r1
 278:	01 f0       	breq	.+0      	; 0x27a <_Z4tonehjm+0x196>
 27a:	00 f4       	brcc	.+0      	; 0x27c <_Z4tonehjm+0x198>
 27c:	00 c0       	rjmp	.+0      	; 0x27e <_Z4tonehjm+0x19a>
 27e:	60 e4       	ldi	r22, 0x40	; 64
 280:	72 e4       	ldi	r23, 0x42	; 66
 282:	8f e0       	ldi	r24, 0x0F	; 15
 284:	90 e0       	ldi	r25, 0x00	; 0
 286:	a4 01       	movw	r20, r8
 288:	93 01       	movw	r18, r6
 28a:	0e 94 00 00 	call	0	; 0x0 <__vector_7>
 28e:	79 01       	movw	r14, r18
 290:	8a 01       	movw	r16, r20
 292:	08 94       	sec
 294:	e1 08       	sbc	r14, r1
 296:	f1 08       	sbc	r15, r1
 298:	01 09       	sbc	r16, r1
 29a:	11 09       	sbc	r17, r1
 29c:	82 e0       	ldi	r24, 0x02	; 2
 29e:	58 16       	cp	r5, r24
 2a0:	01 f4       	brne	.+0      	; 0x2a2 <_Z4tonehjm+0x1be>
 2a2:	9f ef       	ldi	r25, 0xFF	; 255
 2a4:	e9 16       	cp	r14, r25
 2a6:	f1 04       	cpc	r15, r1
 2a8:	01 05       	cpc	r16, r1
 2aa:	11 05       	cpc	r17, r1
 2ac:	01 f0       	breq	.+0      	; 0x2ae <_Z4tonehjm+0x1ca>
 2ae:	00 f4       	brcc	.+0      	; 0x2b0 <_Z4tonehjm+0x1cc>
 2b0:	00 c0       	rjmp	.+0      	; 0x2b2 <_Z4tonehjm+0x1ce>
 2b2:	60 e9       	ldi	r22, 0x90	; 144
 2b4:	70 ed       	ldi	r23, 0xD0	; 208
 2b6:	83 e0       	ldi	r24, 0x03	; 3
 2b8:	90 e0       	ldi	r25, 0x00	; 0
 2ba:	a4 01       	movw	r20, r8
 2bc:	93 01       	movw	r18, r6
 2be:	0e 94 00 00 	call	0	; 0x0 <__vector_7>
 2c2:	79 01       	movw	r14, r18
 2c4:	8a 01       	movw	r16, r20
 2c6:	08 94       	sec
 2c8:	e1 08       	sbc	r14, r1
 2ca:	f1 08       	sbc	r15, r1
 2cc:	01 09       	sbc	r16, r1
 2ce:	11 09       	sbc	r17, r1
 2d0:	83 e0       	ldi	r24, 0x03	; 3
 2d2:	af ef       	ldi	r26, 0xFF	; 255
 2d4:	ea 16       	cp	r14, r26
 2d6:	f1 04       	cpc	r15, r1
 2d8:	01 05       	cpc	r16, r1
 2da:	11 05       	cpc	r17, r1
 2dc:	01 f0       	breq	.+0      	; 0x2de <_Z4tonehjm+0x1fa>
 2de:	00 f4       	brcc	.+0      	; 0x2e0 <_Z4tonehjm+0x1fc>
 2e0:	00 c0       	rjmp	.+0      	; 0x2e2 <_Z4tonehjm+0x1fe>
 2e2:	68 e4       	ldi	r22, 0x48	; 72
 2e4:	78 ee       	ldi	r23, 0xE8	; 232
 2e6:	81 e0       	ldi	r24, 0x01	; 1
 2e8:	90 e0       	ldi	r25, 0x00	; 0
 2ea:	a4 01       	movw	r20, r8
 2ec:	93 01       	movw	r18, r6
 2ee:	0e 94 00 00 	call	0	; 0x0 <__vector_7>
 2f2:	79 01       	movw	r14, r18
 2f4:	8a 01       	movw	r16, r20
 2f6:	08 94       	sec
 2f8:	e1 08       	sbc	r14, r1
 2fa:	f1 08       	sbc	r15, r1
 2fc:	01 09       	sbc	r16, r1
 2fe:	11 09       	sbc	r17, r1
 300:	55 20       	and	r5, r5
 302:	01 f4       	brne	.+0      	; 0x304 <_Z4tonehjm+0x220>
 304:	83 e0       	ldi	r24, 0x03	; 3
 306:	00 c0       	rjmp	.+0      	; 0x308 <_Z4tonehjm+0x224>
 308:	b2 e0       	ldi	r27, 0x02	; 2
 30a:	5b 16       	cp	r5, r27
 30c:	01 f0       	breq	.+0      	; 0x30e <_Z4tonehjm+0x22a>
 30e:	84 e0       	ldi	r24, 0x04	; 4
 310:	00 c0       	rjmp	.+0      	; 0x312 <_Z4tonehjm+0x22e>
 312:	ef ef       	ldi	r30, 0xFF	; 255
 314:	ee 16       	cp	r14, r30
 316:	f1 04       	cpc	r15, r1
 318:	01 05       	cpc	r16, r1
 31a:	11 05       	cpc	r17, r1
 31c:	01 f0       	breq	.+0      	; 0x31e <_Z4tonehjm+0x23a>
 31e:	00 f4       	brcc	.+0      	; 0x320 <_Z4tonehjm+0x23c>
 320:	00 c0       	rjmp	.+0      	; 0x322 <_Z4tonehjm+0x23e>
 322:	64 e2       	ldi	r22, 0x24	; 36
 324:	74 ef       	ldi	r23, 0xF4	; 244
 326:	80 e0       	ldi	r24, 0x00	; 0
 328:	90 e0       	ldi	r25, 0x00	; 0
 32a:	a4 01       	movw	r20, r8
 32c:	93 01       	movw	r18, r6
 32e:	0e 94 00 00 	call	0	; 0x0 <__vector_7>
 332:	79 01       	movw	r14, r18
 334:	8a 01       	movw	r16, r20
 336:	08 94       	sec
 338:	e1 08       	sbc	r14, r1
 33a:	f1 08       	sbc	r15, r1
 33c:	01 09       	sbc	r16, r1
 33e:	11 09       	sbc	r17, r1
 340:	85 e0       	ldi	r24, 0x05	; 5
 342:	ff ef       	ldi	r31, 0xFF	; 255
 344:	ef 16       	cp	r14, r31
 346:	f1 04       	cpc	r15, r1
 348:	01 05       	cpc	r16, r1
 34a:	11 05       	cpc	r17, r1
 34c:	01 f0       	breq	.+0      	; 0x34e <_Z4tonehjm+0x26a>
 34e:	00 f0       	brcs	.+0      	; 0x350 <_Z4tonehjm+0x26c>
 350:	62 e1       	ldi	r22, 0x12	; 18
 352:	7a e7       	ldi	r23, 0x7A	; 122
 354:	80 e0       	ldi	r24, 0x00	; 0
 356:	90 e0       	ldi	r25, 0x00	; 0
 358:	a4 01       	movw	r20, r8
 35a:	93 01       	movw	r18, r6
 35c:	0e 94 00 00 	call	0	; 0x0 <__vector_7>
 360:	79 01       	movw	r14, r18
 362:	8a 01       	movw	r16, r20
 364:	08 94       	sec
 366:	e1 08       	sbc	r14, r1
 368:	f1 08       	sbc	r15, r1
 36a:	01 09       	sbc	r16, r1
 36c:	11 09       	sbc	r17, r1
 36e:	55 20       	and	r5, r5
 370:	01 f0       	breq	.+0      	; 0x372 <_Z4tonehjm+0x28e>
 372:	86 e0       	ldi	r24, 0x06	; 6
 374:	00 c0       	rjmp	.+0      	; 0x376 <_Z4tonehjm+0x292>
 376:	84 e0       	ldi	r24, 0x04	; 4
 378:	2f ef       	ldi	r18, 0xFF	; 255
 37a:	e2 16       	cp	r14, r18
 37c:	f1 04       	cpc	r15, r1
 37e:	01 05       	cpc	r16, r1
 380:	11 05       	cpc	r17, r1
 382:	01 f0       	breq	.+0      	; 0x384 <_Z4tonehjm+0x2a0>
 384:	00 f0       	brcs	.+0      	; 0x386 <_Z4tonehjm+0x2a2>
 386:	86 01       	movw	r16, r12
 388:	75 01       	movw	r14, r10
 38a:	9a e0       	ldi	r25, 0x0A	; 10
 38c:	16 95       	lsr	r17
 38e:	07 95       	ror	r16
 390:	f7 94       	ror	r15
 392:	e7 94       	ror	r14
 394:	9a 95       	dec	r25
 396:	01 f4       	brne	.+0      	; 0x398 <_Z4tonehjm+0x2b4>
 398:	08 94       	sec
 39a:	e1 08       	sbc	r14, r1
 39c:	f1 08       	sbc	r15, r1
 39e:	01 09       	sbc	r16, r1
 3a0:	11 09       	sbc	r17, r1
 3a2:	55 20       	and	r5, r5
 3a4:	01 f0       	breq	.+0      	; 0x3a6 <_Z4tonehjm+0x2c2>
 3a6:	87 e0       	ldi	r24, 0x07	; 7
 3a8:	00 c0       	rjmp	.+0      	; 0x3aa <_Z4tonehjm+0x2c6>
 3aa:	85 e0       	ldi	r24, 0x05	; 5
 3ac:	00 c0       	rjmp	.+0      	; 0x3ae <_Z4tonehjm+0x2ca>
 3ae:	81 e0       	ldi	r24, 0x01	; 1
 3b0:	55 20       	and	r5, r5
 3b2:	01 f4       	brne	.+0      	; 0x3b4 <_Z4tonehjm+0x2d0>
 3b4:	85 bd       	out	0x25, r24	; 37
 3b6:	00 c0       	rjmp	.+0      	; 0x3b8 <_Z4tonehjm+0x2d4>
 3b8:	82 e0       	ldi	r24, 0x02	; 2
 3ba:	80 93 b1 00 	sts	0x00B1, r24
 3be:	00 c0       	rjmp	.+0      	; 0x3c0 <_Z4tonehjm+0x2dc>
 3c0:	51 01       	movw	r10, r2
 3c2:	cc 24       	eor	r12, r12
 3c4:	dd 24       	eor	r13, r13
 3c6:	60 e0       	ldi	r22, 0x00	; 0
 3c8:	72 e1       	ldi	r23, 0x12	; 18
 3ca:	8a e7       	ldi	r24, 0x7A	; 122
 3cc:	90 e0       	ldi	r25, 0x00	; 0
 3ce:	a6 01       	movw	r20, r12
 3d0:	95 01       	movw	r18, r10
 3d2:	0e 94 00 00 	call	0	; 0x0 <__vector_7>
 3d6:	79 01       	movw	r14, r18
 3d8:	8a 01       	movw	r16, r20
 3da:	08 94       	sec
 3dc:	e1 08       	sbc	r14, r1
 3de:	f1 08       	sbc	r15, r1
 3e0:	01 09       	sbc	r16, r1
 3e2:	11 09       	sbc	r17, r1
 3e4:	80 e0       	ldi	r24, 0x00	; 0
 3e6:	e8 16       	cp	r14, r24
 3e8:	80 e0       	ldi	r24, 0x00	; 0
 3ea:	f8 06       	cpc	r15, r24
 3ec:	81 e0       	ldi	r24, 0x01	; 1
 3ee:	08 07       	cpc	r16, r24
 3f0:	80 e0       	ldi	r24, 0x00	; 0
 3f2:	18 07       	cpc	r17, r24
 3f4:	00 f4       	brcc	.+0      	; 0x3f6 <_Z4tonehjm+0x312>
 3f6:	91 e0       	ldi	r25, 0x01	; 1
 3f8:	00 c0       	rjmp	.+0      	; 0x3fa <_Z4tonehjm+0x316>
 3fa:	68 e4       	ldi	r22, 0x48	; 72
 3fc:	78 ee       	ldi	r23, 0xE8	; 232
 3fe:	81 e0       	ldi	r24, 0x01	; 1
 400:	90 e0       	ldi	r25, 0x00	; 0
 402:	a6 01       	movw	r20, r12
 404:	95 01       	movw	r18, r10
 406:	0e 94 00 00 	call	0	; 0x0 <__vector_7>
 40a:	79 01       	movw	r14, r18
 40c:	8a 01       	movw	r16, r20
 40e:	08 94       	sec
 410:	e1 08       	sbc	r14, r1
 412:	f1 08       	sbc	r15, r1
 414:	01 09       	sbc	r16, r1
 416:	11 09       	sbc	r17, r1
 418:	93 e0       	ldi	r25, 0x03	; 3
 41a:	a1 e0       	ldi	r26, 0x01	; 1
 41c:	5a 16       	cp	r5, r26
 41e:	01 f4       	brne	.+0      	; 0x420 <_Z4tonehjm+0x33c>
 420:	80 91 81 00 	lds	r24, 0x0081
 424:	88 7f       	andi	r24, 0xF8	; 248
 426:	98 2b       	or	r25, r24
 428:	90 93 81 00 	sts	0x0081, r25
 42c:	89 81       	ldd	r24, Y+1	; 0x01
 42e:	9a 81       	ldd	r25, Y+2	; 0x02
 430:	ab 81       	ldd	r26, Y+3	; 0x03
 432:	bc 81       	ldd	r27, Y+4	; 0x04
 434:	00 97       	sbiw	r24, 0x00	; 0
 436:	a1 05       	cpc	r26, r1
 438:	b1 05       	cpc	r27, r1
 43a:	01 f4       	brne	.+0      	; 0x43c <_Z4tonehjm+0x358>
 43c:	8f ef       	ldi	r24, 0xFF	; 255
 43e:	9f ef       	ldi	r25, 0xFF	; 255
 440:	af ef       	ldi	r26, 0xFF	; 255
 442:	bf ef       	ldi	r27, 0xFF	; 255
 444:	00 c0       	rjmp	.+0      	; 0x446 <_Z4tonehjm+0x362>
 446:	22 0c       	add	r2, r2
 448:	33 1c       	adc	r3, r3
 44a:	b1 01       	movw	r22, r2
 44c:	80 e0       	ldi	r24, 0x00	; 0
 44e:	90 e0       	ldi	r25, 0x00	; 0
 450:	29 81       	ldd	r18, Y+1	; 0x01
 452:	3a 81       	ldd	r19, Y+2	; 0x02
 454:	4b 81       	ldd	r20, Y+3	; 0x03
 456:	5c 81       	ldd	r21, Y+4	; 0x04
 458:	0e 94 00 00 	call	0	; 0x0 <__vector_7>
 45c:	28 ee       	ldi	r18, 0xE8	; 232
 45e:	33 e0       	ldi	r19, 0x03	; 3
 460:	40 e0       	ldi	r20, 0x00	; 0
 462:	50 e0       	ldi	r21, 0x00	; 0
 464:	0e 94 00 00 	call	0	; 0x0 <__vector_7>
 468:	c9 01       	movw	r24, r18
 46a:	da 01       	movw	r26, r20
 46c:	e1 e0       	ldi	r30, 0x01	; 1
 46e:	5e 16       	cp	r5, r30
 470:	01 f0       	breq	.+0      	; 0x472 <_Z4tonehjm+0x38e>
 472:	f2 e0       	ldi	r31, 0x02	; 2
 474:	5f 16       	cp	r5, r31
 476:	01 f0       	breq	.+0      	; 0x478 <_Z4tonehjm+0x394>
 478:	55 20       	and	r5, r5
 47a:	01 f4       	brne	.+0      	; 0x47c <_Z4tonehjm+0x398>
 47c:	e7 bc       	out	0x27, r14	; 39
 47e:	80 93 00 00 	sts	0x0000, r24
 482:	90 93 00 00 	sts	0x0000, r25
 486:	a0 93 00 00 	sts	0x0000, r26
 48a:	b0 93 00 00 	sts	0x0000, r27
 48e:	80 91 6e 00 	lds	r24, 0x006E
 492:	82 60       	ori	r24, 0x02	; 2
 494:	80 93 6e 00 	sts	0x006E, r24
 498:	00 c0       	rjmp	.+0      	; 0x49a <_Z4tonehjm+0x3b6>
 49a:	f0 92 89 00 	sts	0x0089, r15
 49e:	e0 92 88 00 	sts	0x0088, r14
 4a2:	80 93 00 00 	sts	0x0000, r24
 4a6:	90 93 00 00 	sts	0x0000, r25
 4aa:	a0 93 00 00 	sts	0x0000, r26
 4ae:	b0 93 00 00 	sts	0x0000, r27
 4b2:	80 91 6f 00 	lds	r24, 0x006F
 4b6:	82 60       	ori	r24, 0x02	; 2
 4b8:	80 93 6f 00 	sts	0x006F, r24
 4bc:	00 c0       	rjmp	.+0      	; 0x4be <_Z4tonehjm+0x3da>
 4be:	e0 92 b3 00 	sts	0x00B3, r14
 4c2:	80 93 00 00 	sts	0x0000, r24
 4c6:	90 93 00 00 	sts	0x0000, r25
 4ca:	a0 93 00 00 	sts	0x0000, r26
 4ce:	b0 93 00 00 	sts	0x0000, r27
 4d2:	80 91 70 00 	lds	r24, 0x0070
 4d6:	82 60       	ori	r24, 0x02	; 2
 4d8:	80 93 70 00 	sts	0x0070, r24
 4dc:	00 c0       	rjmp	.+0      	; 0x4de <_Z4tonehjm+0x3fa>
 4de:	84 e0       	ldi	r24, 0x04	; 4
 4e0:	00 c0       	rjmp	.+0      	; 0x4e2 <_Z4tonehjm+0x3fe>
 4e2:	0f 90       	pop	r0
 4e4:	0f 90       	pop	r0
 4e6:	0f 90       	pop	r0
 4e8:	0f 90       	pop	r0
 4ea:	cf 91       	pop	r28
 4ec:	df 91       	pop	r29
 4ee:	1f 91       	pop	r17
 4f0:	0f 91       	pop	r16
 4f2:	ff 90       	pop	r15
 4f4:	ef 90       	pop	r14
 4f6:	df 90       	pop	r13
 4f8:	cf 90       	pop	r12
 4fa:	bf 90       	pop	r11
 4fc:	af 90       	pop	r10
 4fe:	9f 90       	pop	r9
 500:	8f 90       	pop	r8
 502:	7f 90       	pop	r7
 504:	6f 90       	pop	r6
 506:	5f 90       	pop	r5
 508:	3f 90       	pop	r3
 50a:	2f 90       	pop	r2
 50c:	08 95       	ret

WInterrupts.o:     file format elf32-avr

Sections:
Idx Name          Size      VMA       LMA       File off  Algn
  0 .text         00000120  00000000  00000000  00000034  2**0
                  CONTENTS, ALLOC, LOAD, RELOC, READONLY, CODE
  1 .data         00000000  00000000  00000000  00000154  2**0
                  CONTENTS, ALLOC, LOAD, DATA
  2 .bss          00000004  00000000  00000000  00000154  2**0
                  ALLOC

Disassembly of section .text:

00000000 <attachInterrupt>:
   0:	82 30       	cpi	r24, 0x02	; 2
   2:	00 f4       	brcc	.+0      	; 0x4 <attachInterrupt+0x4>
   4:	e8 2f       	mov	r30, r24
   6:	f0 e0       	ldi	r31, 0x00	; 0
   8:	ee 0f       	add	r30, r30
   a:	ff 1f       	adc	r31, r31
   c:	e0 50       	subi	r30, 0x00	; 0
   e:	f0 40       	sbci	r31, 0x00	; 0
  10:	71 83       	std	Z+1, r23	; 0x01
  12:	60 83       	st	Z, r22
  14:	88 23       	and	r24, r24
  16:	01 f0       	breq	.+0      	; 0x18 <attachInterrupt+0x18>
  18:	81 30       	cpi	r24, 0x01	; 1
  1a:	01 f4       	brne	.+0      	; 0x1c <attachInterrupt+0x1c>
  1c:	00 c0       	rjmp	.+0      	; 0x1e <attachInterrupt+0x1e>
  1e:	80 91 69 00 	lds	r24, 0x0069
  22:	8c 7f       	andi	r24, 0xFC	; 252
  24:	84 2b       	or	r24, r20
  26:	80 93 69 00 	sts	0x0069, r24
  2a:	e8 9a       	sbi	0x1d, 0	; 29
  2c:	08 95       	ret
  2e:	80 91 69 00 	lds	r24, 0x0069
  32:	44 0f       	add	r20, r20
  34:	55 1f       	adc	r21, r21
  36:	44 0f       	add	r20, r20
  38:	55 1f       	adc	r21, r21
  3a:	83 7f       	andi	r24, 0xF3	; 243
  3c:	84 2b       	or	r24, r20
  3e:	80 93 69 00 	sts	0x0069, r24
  42:	e9 9a       	sbi	0x1d, 1	; 29
  44:	08 95       	ret

00000046 <detachInterrupt>:
  46:	82 30       	cpi	r24, 0x02	; 2
  48:	00 f4       	brcc	.+0      	; 0x4a <detachInterrupt+0x4>
  4a:	88 23       	and	r24, r24
  4c:	01 f0       	breq	.+0      	; 0x4e <detachInterrupt+0x8>
  4e:	81 30       	cpi	r24, 0x01	; 1
  50:	01 f4       	brne	.+0      	; 0x52 <detachInterrupt+0xc>
  52:	00 c0       	rjmp	.+0      	; 0x54 <detachInterrupt+0xe>
  54:	e8 98       	cbi	0x1d, 0	; 29
  56:	00 c0       	rjmp	.+0      	; 0x58 <detachInterrupt+0x12>
  58:	e9 98       	cbi	0x1d, 1	; 29
  5a:	e8 2f       	mov	r30, r24
  5c:	f0 e0       	ldi	r31, 0x00	; 0
  5e:	ee 0f       	add	r30, r30
  60:	ff 1f       	adc	r31, r31
  62:	e0 50       	subi	r30, 0x00	; 0
  64:	f0 40       	sbci	r31, 0x00	; 0
  66:	11 82       	std	Z+1, r1	; 0x01
  68:	10 82       	st	Z, r1
  6a:	08 95       	ret

0000006c <__vector_1>:
  6c:	1f 92       	push	r1
  6e:	0f 92       	push	r0
  70:	0f b6       	in	r0, 0x3f	; 63
  72:	0f 92       	push	r0
  74:	11 24       	eor	r1, r1
  76:	2f 93       	push	r18
  78:	3f 93       	push	r19
  7a:	4f 93       	push	r20
  7c:	5f 93       	push	r21
  7e:	6f 93       	push	r22
  80:	7f 93       	push	r23
  82:	8f 93       	push	r24
  84:	9f 93       	push	r25
  86:	af 93       	push	r26
  88:	bf 93       	push	r27
  8a:	ef 93       	push	r30
  8c:	ff 93       	push	r31
  8e:	80 91 00 00 	lds	r24, 0x0000
  92:	90 91 00 00 	lds	r25, 0x0000
  96:	89 2b       	or	r24, r25
  98:	01 f0       	breq	.+0      	; 0x9a <__vector_1+0x2e>
  9a:	e0 91 00 00 	lds	r30, 0x0000
  9e:	f0 91 00 00 	lds	r31, 0x0000
  a2:	09 95       	icall
  a4:	ff 91       	pop	r31
  a6:	ef 91       	pop	r30
  a8:	bf 91       	pop	r27
  aa:	af 91       	pop	r26
  ac:	9f 91       	pop	r25
  ae:	8f 91       	pop	r24
  b0:	7f 91       	pop	r23
  b2:	6f 91       	pop	r22
  b4:	5f 91       	pop	r21
  b6:	4f 91       	pop	r20
  b8:	3f 91       	pop	r19
  ba:	2f 91       	pop	r18
  bc:	0f 90       	pop	r0
  be:	0f be       	out	0x3f, r0	; 63
  c0:	0f 90       	pop	r0
  c2:	1f 90       	pop	r1
  c4:	18 95       	reti

000000c6 <__vector_2>:
  c6:	1f 92       	push	r1
  c8:	0f 92       	push	r0
  ca:	0f b6       	in	r0, 0x3f	; 63
  cc:	0f 92       	push	r0
  ce:	11 24       	eor	r1, r1
  d0:	2f 93       	push	r18
  d2:	3f 93       	push	r19
  d4:	4f 93       	push	r20
  d6:	5f 93       	push	r21
  d8:	6f 93       	push	r22
  da:	7f 93       	push	r23
  dc:	8f 93       	push	r24
  de:	9f 93       	push	r25
  e0:	af 93       	push	r26
  e2:	bf 93       	push	r27
  e4:	ef 93       	push	r30
  e6:	ff 93       	push	r31
  e8:	80 91 00 00 	lds	r24, 0x0000
  ec:	90 91 00 00 	lds	r25, 0x0000
  f0:	89 2b       	or	r24, r25
  f2:	01 f0       	breq	.+0      	; 0xf4 <__vector_2+0x2e>
  f4:	e0 91 00 00 	lds	r30, 0x0000
  f8:	f0 91 00 00 	lds	r31, 0x0000
  fc:	09 95       	icall
  fe:	ff 91       	pop	r31
 100:	ef 91       	pop	r30
 102:	bf 91       	pop	r27
 104:	af 91       	pop	r26
 106:	9f 91       	pop	r25
 108:	8f 91       	pop	r24
 10a:	7f 91       	pop	r23
 10c:	6f 91       	pop	r22
 10e:	5f 91       	pop	r21
 110:	4f 91       	pop	r20
 112:	3f 91       	pop	r19
 114:	2f 91       	pop	r18
 116:	0f 90       	pop	r0
 118:	0f be       	out	0x3f, r0	; 63
 11a:	0f 90       	pop	r0
 11c:	1f 90       	pop	r1
 11e:	18 95       	reti

WMath.o:     file format elf32-avr

Sections:
Idx Name          Size      VMA       LMA       File off  Algn
  0 .text         00000132  00000000  00000000  00000034  2**0
                  CONTENTS, ALLOC, LOAD, RELOC, READONLY, CODE
  1 .data         00000000  00000000  00000000  00000166  2**0
                  CONTENTS, ALLOC, LOAD, DATA
  2 .bss          00000000  00000000  00000000  00000166  2**0
                  ALLOC

Disassembly of section .text:

00000000 <_Z3maplllll>:
   0:	2f 92       	push	r2
   2:	3f 92       	push	r3
   4:	4f 92       	push	r4
   6:	5f 92       	push	r5
   8:	6f 92       	push	r6
   a:	7f 92       	push	r7
   c:	8f 92       	push	r8
   e:	9f 92       	push	r9
  10:	af 92       	push	r10
  12:	bf 92       	push	r11
  14:	cf 92       	push	r12
  16:	df 92       	push	r13
  18:	ef 92       	push	r14
  1a:	ff 92       	push	r15
  1c:	0f 93       	push	r16
  1e:	1f 93       	push	r17
  20:	df 93       	push	r29
  22:	cf 93       	push	r28
  24:	cd b7       	in	r28, 0x3d	; 61
  26:	de b7       	in	r29, 0x3e	; 62
  28:	3b 01       	movw	r6, r22
  2a:	4c 01       	movw	r8, r24
  2c:	19 01       	movw	r2, r18
  2e:	2a 01       	movw	r4, r20
  30:	6d 89       	ldd	r22, Y+21	; 0x15
  32:	7e 89       	ldd	r23, Y+22	; 0x16
  34:	8f 89       	ldd	r24, Y+23	; 0x17
  36:	98 8d       	ldd	r25, Y+24	; 0x18
  38:	6a 19       	sub	r22, r10
  3a:	7b 09       	sbc	r23, r11
  3c:	8c 09       	sbc	r24, r12
  3e:	9d 09       	sbc	r25, r13
  40:	62 1a       	sub	r6, r18
  42:	73 0a       	sbc	r7, r19
  44:	84 0a       	sbc	r8, r20
  46:	95 0a       	sbc	r9, r21
  48:	a4 01       	movw	r20, r8
  4a:	93 01       	movw	r18, r6
  4c:	0e 94 00 00 	call	0	; 0x0 <_Z3maplllll>
  50:	e2 18       	sub	r14, r2
  52:	f3 08       	sbc	r15, r3
  54:	04 09       	sbc	r16, r4
  56:	15 09       	sbc	r17, r5
  58:	a8 01       	movw	r20, r16
  5a:	97 01       	movw	r18, r14
  5c:	0e 94 00 00 	call	0	; 0x0 <_Z3maplllll>
  60:	2a 0d       	add	r18, r10
  62:	3b 1d       	adc	r19, r11
  64:	4c 1d       	adc	r20, r12
  66:	5d 1d       	adc	r21, r13
  68:	b9 01       	movw	r22, r18
  6a:	ca 01       	movw	r24, r20
  6c:	cf 91       	pop	r28
  6e:	df 91       	pop	r29
  70:	1f 91       	pop	r17
  72:	0f 91       	pop	r16
  74:	ff 90       	pop	r15
  76:	ef 90       	pop	r14
  78:	df 90       	pop	r13
  7a:	cf 90       	pop	r12
  7c:	bf 90       	pop	r11
  7e:	af 90       	pop	r10
  80:	9f 90       	pop	r9
  82:	8f 90       	pop	r8
  84:	7f 90       	pop	r7
  86:	6f 90       	pop	r6
  88:	5f 90       	pop	r5
  8a:	4f 90       	pop	r4
  8c:	3f 90       	pop	r3
  8e:	2f 90       	pop	r2
  90:	08 95       	ret

00000092 <_Z8makeWordj>:
  92:	08 95       	ret

00000094 <_Z8makeWordhh>:
  94:	70 e0       	ldi	r23, 0x00	; 0
  96:	38 2f       	mov	r19, r24
  98:	20 e0       	ldi	r18, 0x00	; 0
  9a:	62 2b       	or	r22, r18
  9c:	73 2b       	or	r23, r19
  9e:	cb 01       	movw	r24, r22
  a0:	08 95       	ret

000000a2 <_Z6randoml>:
  a2:	ef 92       	push	r14
  a4:	ff 92       	push	r15
  a6:	0f 93       	push	r16
  a8:	1f 93       	push	r17
  aa:	7b 01       	movw	r14, r22
  ac:	8c 01       	movw	r16, r24
  ae:	61 15       	cp	r22, r1
  b0:	71 05       	cpc	r23, r1
  b2:	81 05       	cpc	r24, r1
  b4:	91 05       	cpc	r25, r1
  b6:	01 f4       	brne	.+0      	; 0xb8 <_Z6randoml+0x16>
  b8:	20 e0       	ldi	r18, 0x00	; 0
  ba:	30 e0       	ldi	r19, 0x00	; 0
  bc:	40 e0       	ldi	r20, 0x00	; 0
  be:	50 e0       	ldi	r21, 0x00	; 0
  c0:	00 c0       	rjmp	.+0      	; 0xc2 <_Z6randoml+0x20>
  c2:	0e 94 00 00 	call	0	; 0x0 <_Z3maplllll>
  c6:	a8 01       	movw	r20, r16
  c8:	97 01       	movw	r18, r14
  ca:	0e 94 00 00 	call	0	; 0x0 <_Z3maplllll>
  ce:	ac 01       	movw	r20, r24
  d0:	cb 01       	movw	r24, r22
  d2:	da 01       	movw	r26, r20
  d4:	9c 01       	movw	r18, r24
  d6:	ad 01       	movw	r20, r26
  d8:	b9 01       	movw	r22, r18
  da:	ca 01       	movw	r24, r20
  dc:	1f 91       	pop	r17
  de:	0f 91       	pop	r16
  e0:	ff 90       	pop	r15
  e2:	ef 90       	pop	r14
  e4:	08 95       	ret

000000e6 <_Z6randomll>:
  e6:	ef 92       	push	r14
  e8:	ff 92       	push	r15
  ea:	0f 93       	push	r16
  ec:	1f 93       	push	r17
  ee:	7b 01       	movw	r14, r22
  f0:	8c 01       	movw	r16, r24
  f2:	62 17       	cp	r22, r18
  f4:	73 07       	cpc	r23, r19
  f6:	84 07       	cpc	r24, r20
  f8:	95 07       	cpc	r25, r21
  fa:	04 f4       	brge	.+0      	; 0xfc <_Z6randomll+0x16>
  fc:	26 1b       	sub	r18, r22
  fe:	37 0b       	sbc	r19, r23
 100:	48 0b       	sbc	r20, r24
 102:	59 0b       	sbc	r21, r25
 104:	ca 01       	movw	r24, r20
 106:	b9 01       	movw	r22, r18
 108:	0e 94 00 00 	call	0	; 0x0 <_Z3maplllll>
 10c:	e6 0e       	add	r14, r22
 10e:	f7 1e       	adc	r15, r23
 110:	08 1f       	adc	r16, r24
 112:	19 1f       	adc	r17, r25
 114:	b7 01       	movw	r22, r14
 116:	c8 01       	movw	r24, r16
 118:	1f 91       	pop	r17
 11a:	0f 91       	pop	r16
 11c:	ff 90       	pop	r15
 11e:	ef 90       	pop	r14
 120:	08 95       	ret

00000122 <_Z10randomSeedj>:
 122:	00 97       	sbiw	r24, 0x00	; 0
 124:	01 f0       	breq	.+0      	; 0x126 <_Z10randomSeedj+0x4>
 126:	bc 01       	movw	r22, r24
 128:	80 e0       	ldi	r24, 0x00	; 0
 12a:	90 e0       	ldi	r25, 0x00	; 0
 12c:	0e 94 00 00 	call	0	; 0x0 <_Z3maplllll>
 130:	08 95       	ret

pins_arduino.o:     file format elf32-avr

Sections:
Idx Name          Size      VMA       LMA       File off  Algn
  0 .text         00000000  00000000  00000000  00000034  2**0
                  CONTENTS, ALLOC, LOAD, READONLY, CODE
  1 .data         00000000  00000000  00000000  00000034  2**0
                  CONTENTS, ALLOC, LOAD, DATA
  2 .bss          00000000  00000000  00000000  00000034  2**0
                  ALLOC
  3 .progmem.data 0000005a  00000000  00000000  00000034  2**0
                  CONTENTS, ALLOC, LOAD, READONLY, DATA

wiring.o:     file format elf32-avr

Sections:
Idx Name          Size      VMA       LMA       File off  Algn
  0 .text         000001d4  00000000  00000000  00000034  2**0
                  CONTENTS, ALLOC, LOAD, RELOC, READONLY, CODE
  1 .data         00000000  00000000  00000000  00000208  2**0
                  CONTENTS, ALLOC, LOAD, DATA
  2 .bss          00000009  00000000  00000000  00000208  2**0
                  ALLOC

Disassembly of section .text:

00000000 <__vector_16>:
   0:	1f 92       	push	r1
   2:	0f 92       	push	r0
   4:	0f b6       	in	r0, 0x3f	; 63
   6:	0f 92       	push	r0
   8:	11 24       	eor	r1, r1
   a:	2f 93       	push	r18
   c:	3f 93       	push	r19
   e:	8f 93       	push	r24
  10:	9f 93       	push	r25
  12:	af 93       	push	r26
  14:	bf 93       	push	r27
  16:	80 91 00 00 	lds	r24, 0x0000
  1a:	90 91 00 00 	lds	r25, 0x0000
  1e:	a0 91 00 00 	lds	r26, 0x0000
  22:	b0 91 00 00 	lds	r27, 0x0000
  26:	30 91 00 00 	lds	r19, 0x0000
  2a:	01 96       	adiw	r24, 0x01	; 1
  2c:	a1 1d       	adc	r26, r1
  2e:	b1 1d       	adc	r27, r1
  30:	23 2f       	mov	r18, r19
  32:	2d 5f       	subi	r18, 0xFD	; 253
  34:	2d 37       	cpi	r18, 0x7D	; 125
  36:	00 f0       	brcs	.+0      	; 0x38 <__vector_16+0x38>
  38:	2d 57       	subi	r18, 0x7D	; 125
  3a:	01 96       	adiw	r24, 0x01	; 1
  3c:	a1 1d       	adc	r26, r1
  3e:	b1 1d       	adc	r27, r1
  40:	20 93 00 00 	sts	0x0000, r18
  44:	80 93 00 00 	sts	0x0000, r24
  48:	90 93 00 00 	sts	0x0000, r25
  4c:	a0 93 00 00 	sts	0x0000, r26
  50:	b0 93 00 00 	sts	0x0000, r27
  54:	80 91 00 00 	lds	r24, 0x0000
  58:	90 91 00 00 	lds	r25, 0x0000
  5c:	a0 91 00 00 	lds	r26, 0x0000
  60:	b0 91 00 00 	lds	r27, 0x0000
  64:	01 96       	adiw	r24, 0x01	; 1
  66:	a1 1d       	adc	r26, r1
  68:	b1 1d       	adc	r27, r1
  6a:	80 93 00 00 	sts	0x0000, r24
  6e:	90 93 00 00 	sts	0x0000, r25
  72:	a0 93 00 00 	sts	0x0000, r26
  76:	b0 93 00 00 	sts	0x0000, r27
  7a:	bf 91       	pop	r27
  7c:	af 91       	pop	r26
  7e:	9f 91       	pop	r25
  80:	8f 91       	pop	r24
  82:	3f 91       	pop	r19
  84:	2f 91       	pop	r18
  86:	0f 90       	pop	r0
  88:	0f be       	out	0x3f, r0	; 63
  8a:	0f 90       	pop	r0
  8c:	1f 90       	pop	r1
  8e:	18 95       	reti

00000090 <millis>:
  90:	8f b7       	in	r24, 0x3f	; 63
  92:	f8 94       	cli
  94:	20 91 00 00 	lds	r18, 0x0000
  98:	30 91 00 00 	lds	r19, 0x0000
  9c:	40 91 00 00 	lds	r20, 0x0000
  a0:	50 91 00 00 	lds	r21, 0x0000
  a4:	8f bf       	out	0x3f, r24	; 63
  a6:	b9 01       	movw	r22, r18
  a8:	ca 01       	movw	r24, r20
  aa:	08 95       	ret

000000ac <micros>:
  ac:	9f b7       	in	r25, 0x3f	; 63
  ae:	f8 94       	cli
  b0:	20 91 00 00 	lds	r18, 0x0000
  b4:	30 91 00 00 	lds	r19, 0x0000
  b8:	40 91 00 00 	lds	r20, 0x0000
  bc:	50 91 00 00 	lds	r21, 0x0000
  c0:	86 b5       	in	r24, 0x26	; 38
  c2:	a8 9b       	sbis	0x15, 0	; 21
  c4:	00 c0       	rjmp	.+0      	; 0xc6 <micros+0x1a>
  c6:	8f 3f       	cpi	r24, 0xFF	; 255
  c8:	01 f0       	breq	.+0      	; 0xca <micros+0x1e>
  ca:	2f 5f       	subi	r18, 0xFF	; 255
  cc:	3f 4f       	sbci	r19, 0xFF	; 255
  ce:	4f 4f       	sbci	r20, 0xFF	; 255
  d0:	5f 4f       	sbci	r21, 0xFF	; 255
  d2:	9f bf       	out	0x3f, r25	; 63
  d4:	54 2f       	mov	r21, r20
  d6:	43 2f       	mov	r20, r19
  d8:	32 2f       	mov	r19, r18
  da:	22 27       	eor	r18, r18
  dc:	28 0f       	add	r18, r24
  de:	31 1d       	adc	r19, r1
  e0:	41 1d       	adc	r20, r1
  e2:	51 1d       	adc	r21, r1
  e4:	82 e0       	ldi	r24, 0x02	; 2
  e6:	22 0f       	add	r18, r18
  e8:	33 1f       	adc	r19, r19
  ea:	44 1f       	adc	r20, r20
  ec:	55 1f       	adc	r21, r21
  ee:	8a 95       	dec	r24
  f0:	01 f4       	brne	.+0      	; 0xf2 <micros+0x46>
  f2:	b9 01       	movw	r22, r18
  f4:	ca 01       	movw	r24, r20
  f6:	08 95       	ret

000000f8 <delay>:
  f8:	ef 92       	push	r14
  fa:	ff 92       	push	r15
  fc:	0f 93       	push	r16
  fe:	1f 93       	push	r17
 100:	7b 01       	movw	r14, r22
 102:	8c 01       	movw	r16, r24
 104:	8f b7       	in	r24, 0x3f	; 63
 106:	f8 94       	cli
 108:	40 91 00 00 	lds	r20, 0x0000
 10c:	50 91 00 00 	lds	r21, 0x0000
 110:	60 91 00 00 	lds	r22, 0x0000
 114:	70 91 00 00 	lds	r23, 0x0000
 118:	8f bf       	out	0x3f, r24	; 63
 11a:	2f b7       	in	r18, 0x3f	; 63
 11c:	f8 94       	cli
 11e:	80 91 00 00 	lds	r24, 0x0000
 122:	90 91 00 00 	lds	r25, 0x0000
 126:	a0 91 00 00 	lds	r26, 0x0000
 12a:	b0 91 00 00 	lds	r27, 0x0000
 12e:	2f bf       	out	0x3f, r18	; 63
 130:	84 1b       	sub	r24, r20
 132:	95 0b       	sbc	r25, r21
 134:	a6 0b       	sbc	r26, r22
 136:	b7 0b       	sbc	r27, r23
 138:	e8 16       	cp	r14, r24
 13a:	f9 06       	cpc	r15, r25
 13c:	0a 07       	cpc	r16, r26
 13e:	1b 07       	cpc	r17, r27
 140:	00 f4       	brcc	.+0      	; 0x142 <delay+0x4a>
 142:	1f 91       	pop	r17
 144:	0f 91       	pop	r16
 146:	ff 90       	pop	r15
 148:	ef 90       	pop	r14
 14a:	08 95       	ret

0000014c <delayMicroseconds>:
 14c:	01 97       	sbiw	r24, 0x01	; 1
 14e:	01 f0       	breq	.+0      	; 0x150 <delayMicroseconds+0x4>
 150:	88 0f       	add	r24, r24
 152:	99 1f       	adc	r25, r25
 154:	88 0f       	add	r24, r24
 156:	99 1f       	adc	r25, r25
 158:	02 97       	sbiw	r24, 0x02	; 2
 15a:	01 97       	sbiw	r24, 0x01	; 1
 15c:	01 f4       	brne	.+0      	; 0x15e <delayMicroseconds+0x12>
 15e:	08 95       	ret

00000160 <init>:
 160:	78 94       	sei
 162:	84 b5       	in	r24, 0x24	; 36
 164:	82 60       	ori	r24, 0x02	; 2
 166:	84 bd       	out	0x24, r24	; 36
 168:	84 b5       	in	r24, 0x24	; 36
 16a:	81 60       	ori	r24, 0x01	; 1
 16c:	84 bd       	out	0x24, r24	; 36
 16e:	85 b5       	in	r24, 0x25	; 37
 170:	82 60       	ori	r24, 0x02	; 2
 172:	85 bd       	out	0x25, r24	; 37
 174:	85 b5       	in	r24, 0x25	; 37
 176:	81 60       	ori	r24, 0x01	; 1
 178:	85 bd       	out	0x25, r24	; 37
 17a:	ee e6       	ldi	r30, 0x6E	; 110
 17c:	f0 e0       	ldi	r31, 0x00	; 0
 17e:	80 81       	ld	r24, Z
 180:	81 60       	ori	r24, 0x01	; 1
 182:	80 83       	st	Z, r24
 184:	e1 e8       	ldi	r30, 0x81	; 129
 186:	f0 e0       	ldi	r31, 0x00	; 0
 188:	80 81       	ld	r24, Z
 18a:	82 60       	ori	r24, 0x02	; 2
 18c:	80 83       	st	Z, r24
 18e:	80 81       	ld	r24, Z
 190:	81 60       	ori	r24, 0x01	; 1
 192:	80 83       	st	Z, r24
 194:	e0 e8       	ldi	r30, 0x80	; 128
 196:	f0 e0       	ldi	r31, 0x00	; 0
 198:	80 81       	ld	r24, Z
 19a:	81 60       	ori	r24, 0x01	; 1
 19c:	80 83       	st	Z, r24
 19e:	e1 eb       	ldi	r30, 0xB1	; 177
 1a0:	f0 e0       	ldi	r31, 0x00	; 0
 1a2:	80 81       	ld	r24, Z
 1a4:	84 60       	ori	r24, 0x04	; 4
 1a6:	80 83       	st	Z, r24
 1a8:	e0 eb       	ldi	r30, 0xB0	; 176
 1aa:	f0 e0       	ldi	r31, 0x00	; 0
 1ac:	80 81       	ld	r24, Z
 1ae:	81 60       	ori	r24, 0x01	; 1
 1b0:	80 83       	st	Z, r24
 1b2:	ea e7       	ldi	r30, 0x7A	; 122
 1b4:	f0 e0       	ldi	r31, 0x00	; 0
 1b6:	80 81       	ld	r24, Z
 1b8:	84 60       	ori	r24, 0x04	; 4
 1ba:	80 83       	st	Z, r24
 1bc:	80 81       	ld	r24, Z
 1be:	82 60       	ori	r24, 0x02	; 2
 1c0:	80 83       	st	Z, r24
 1c2:	80 81       	ld	r24, Z
 1c4:	81 60       	ori	r24, 0x01	; 1
 1c6:	80 83       	st	Z, r24
 1c8:	80 81       	ld	r24, Z
 1ca:	80 68       	ori	r24, 0x80	; 128
 1cc:	80 83       	st	Z, r24
 1ce:	10 92 c1 00 	sts	0x00C1, r1
 1d2:	08 95       	ret

wiring_analog.o:     file format elf32-avr

Sections:
Idx Name          Size      VMA       LMA       File off  Algn
  0 .text         000000f4  00000000  00000000  00000034  2**0
                  CONTENTS, ALLOC, LOAD, RELOC, READONLY, CODE
  1 .data         00000001  00000000  00000000  00000128  2**0
                  CONTENTS, ALLOC, LOAD, DATA
  2 .bss          00000000  00000000  00000000  00000129  2**0
                  ALLOC

Disassembly of section .text:

00000000 <analogReference>:
   0:	80 93 00 00 	sts	0x0000, r24
   4:	08 95       	ret

00000006 <analogRead>:
   6:	87 70       	andi	r24, 0x07	; 7
   8:	90 91 00 00 	lds	r25, 0x0000
   c:	92 95       	swap	r25
   e:	99 0f       	add	r25, r25
  10:	99 0f       	add	r25, r25
  12:	90 7c       	andi	r25, 0xC0	; 192
  14:	98 2b       	or	r25, r24
  16:	90 93 7c 00 	sts	0x007C, r25
  1a:	80 91 7a 00 	lds	r24, 0x007A
  1e:	80 64       	ori	r24, 0x40	; 64
  20:	80 93 7a 00 	sts	0x007A, r24
  24:	80 91 7a 00 	lds	r24, 0x007A
  28:	86 fd       	sbrc	r24, 6
  2a:	00 c0       	rjmp	.+0      	; 0x2c <analogRead+0x26>
  2c:	20 91 78 00 	lds	r18, 0x0078
  30:	40 91 79 00 	lds	r20, 0x0079
  34:	94 2f       	mov	r25, r20
  36:	80 e0       	ldi	r24, 0x00	; 0
  38:	30 e0       	ldi	r19, 0x00	; 0
  3a:	28 2b       	or	r18, r24
  3c:	39 2b       	or	r19, r25
  3e:	c9 01       	movw	r24, r18
  40:	08 95       	ret

00000042 <analogWrite>:
  42:	1f 93       	push	r17
  44:	cf 93       	push	r28
  46:	df 93       	push	r29
  48:	18 2f       	mov	r17, r24
  4a:	eb 01       	movw	r28, r22
  4c:	61 e0       	ldi	r22, 0x01	; 1
  4e:	0e 94 00 00 	call	0	; 0x0 <analogReference>
  52:	e1 2f       	mov	r30, r17
  54:	f0 e0       	ldi	r31, 0x00	; 0
  56:	e0 50       	subi	r30, 0x00	; 0
  58:	f0 40       	sbci	r31, 0x00	; 0
  5a:	84 91       	lpm	r24, Z+
  5c:	83 30       	cpi	r24, 0x03	; 3
  5e:	01 f4       	brne	.+0      	; 0x60 <analogWrite+0x1e>
  60:	80 91 80 00 	lds	r24, 0x0080
  64:	80 68       	ori	r24, 0x80	; 128
  66:	80 93 80 00 	sts	0x0080, r24
  6a:	d0 93 89 00 	sts	0x0089, r29
  6e:	c0 93 88 00 	sts	0x0088, r28
  72:	00 c0       	rjmp	.+0      	; 0x74 <analogWrite+0x32>
  74:	84 30       	cpi	r24, 0x04	; 4
  76:	01 f4       	brne	.+0      	; 0x78 <analogWrite+0x36>
  78:	80 91 80 00 	lds	r24, 0x0080
  7c:	80 62       	ori	r24, 0x20	; 32
  7e:	80 93 80 00 	sts	0x0080, r24
  82:	d0 93 8b 00 	sts	0x008B, r29
  86:	c0 93 8a 00 	sts	0x008A, r28
  8a:	00 c0       	rjmp	.+0      	; 0x8c <analogWrite+0x4a>
  8c:	81 30       	cpi	r24, 0x01	; 1
  8e:	01 f4       	brne	.+0      	; 0x90 <analogWrite+0x4e>
  90:	20 97       	sbiw	r28, 0x00	; 0
  92:	01 f0       	breq	.+0      	; 0x94 <analogWrite+0x52>
  94:	84 b5       	in	r24, 0x24	; 36
  96:	80 68       	ori	r24, 0x80	; 128
  98:	84 bd       	out	0x24, r24	; 36
  9a:	c7 bd       	out	0x27, r28	; 39
  9c:	00 c0       	rjmp	.+0      	; 0x9e <analogWrite+0x5c>
  9e:	82 30       	cpi	r24, 0x02	; 2
  a0:	01 f4       	brne	.+0      	; 0xa2 <analogWrite+0x60>
  a2:	20 97       	sbiw	r28, 0x00	; 0
  a4:	01 f0       	breq	.+0      	; 0xa6 <analogWrite+0x64>
  a6:	84 b5       	in	r24, 0x24	; 36
  a8:	80 62       	ori	r24, 0x20	; 32
  aa:	84 bd       	out	0x24, r24	; 36
  ac:	c8 bd       	out	0x28, r28	; 40
  ae:	00 c0       	rjmp	.+0      	; 0xb0 <analogWrite+0x6e>
  b0:	86 30       	cpi	r24, 0x06	; 6
  b2:	01 f4       	brne	.+0      	; 0xb4 <analogWrite+0x72>
  b4:	80 91 b0 00 	lds	r24, 0x00B0
  b8:	80 68       	ori	r24, 0x80	; 128
  ba:	80 93 b0 00 	sts	0x00B0, r24
  be:	c0 93 b3 00 	sts	0x00B3, r28
  c2:	00 c0       	rjmp	.+0      	; 0xc4 <analogWrite+0x82>
  c4:	87 30       	cpi	r24, 0x07	; 7
  c6:	01 f4       	brne	.+0      	; 0xc8 <analogWrite+0x86>
  c8:	80 91 b0 00 	lds	r24, 0x00B0
  cc:	80 62       	ori	r24, 0x20	; 32
  ce:	80 93 b0 00 	sts	0x00B0, r24
  d2:	c0 93 b4 00 	sts	0x00B4, r28
  d6:	00 c0       	rjmp	.+0      	; 0xd8 <analogWrite+0x96>
  d8:	c0 38       	cpi	r28, 0x80	; 128
  da:	d1 05       	cpc	r29, r1
  dc:	04 f4       	brge	.+0      	; 0xde <analogWrite+0x9c>
  de:	81 2f       	mov	r24, r17
  e0:	60 e0       	ldi	r22, 0x00	; 0
  e2:	00 c0       	rjmp	.+0      	; 0xe4 <analogWrite+0xa2>
  e4:	81 2f       	mov	r24, r17
  e6:	61 e0       	ldi	r22, 0x01	; 1
  e8:	0e 94 00 00 	call	0	; 0x0 <analogReference>
  ec:	df 91       	pop	r29
  ee:	cf 91       	pop	r28
  f0:	1f 91       	pop	r17
  f2:	08 95       	ret

wiring_digital.o:     file format elf32-avr

Sections:
Idx Name          Size      VMA       LMA       File off  Algn
  0 .text         00000178  00000000  00000000  00000034  2**0
                  CONTENTS, ALLOC, LOAD, RELOC, READONLY, CODE
  1 .data         00000000  00000000  00000000  000001ac  2**0
                  CONTENTS, ALLOC, LOAD, DATA
  2 .bss          00000000  00000000  00000000  000001ac  2**0
                  ALLOC

Disassembly of section .text:

00000000 <pinMode>:
   0:	28 2f       	mov	r18, r24
   2:	30 e0       	ldi	r19, 0x00	; 0
   4:	c9 01       	movw	r24, r18
   6:	80 50       	subi	r24, 0x00	; 0
   8:	90 40       	sbci	r25, 0x00	; 0
   a:	fc 01       	movw	r30, r24
   c:	94 91       	lpm	r25, Z+
   e:	20 50       	subi	r18, 0x00	; 0
  10:	30 40       	sbci	r19, 0x00	; 0
  12:	f9 01       	movw	r30, r18
  14:	84 91       	lpm	r24, Z+
  16:	88 23       	and	r24, r24
  18:	01 f0       	breq	.+0      	; 0x1a <pinMode+0x1a>
  1a:	e8 2f       	mov	r30, r24
  1c:	f0 e0       	ldi	r31, 0x00	; 0
  1e:	ee 0f       	add	r30, r30
  20:	ff 1f       	adc	r31, r31
  22:	e0 50       	subi	r30, 0x00	; 0
  24:	f0 40       	sbci	r31, 0x00	; 0
  26:	a5 91       	lpm	r26, Z+
  28:	b4 91       	lpm	r27, Z+
  2a:	66 23       	and	r22, r22
  2c:	01 f4       	brne	.+0      	; 0x2e <pinMode+0x2e>
  2e:	8c 91       	ld	r24, X
  30:	90 95       	com	r25
  32:	89 23       	and	r24, r25
  34:	8c 93       	st	X, r24
  36:	08 95       	ret
  38:	8c 91       	ld	r24, X
  3a:	89 2b       	or	r24, r25
  3c:	8c 93       	st	X, r24
  3e:	08 95       	ret

00000040 <digitalWrite>:
  40:	48 2f       	mov	r20, r24
  42:	50 e0       	ldi	r21, 0x00	; 0
  44:	ca 01       	movw	r24, r20
  46:	80 50       	subi	r24, 0x00	; 0
  48:	90 40       	sbci	r25, 0x00	; 0
  4a:	fc 01       	movw	r30, r24
  4c:	24 91       	lpm	r18, Z+
  4e:	ca 01       	movw	r24, r20
  50:	80 50       	subi	r24, 0x00	; 0
  52:	90 40       	sbci	r25, 0x00	; 0
  54:	fc 01       	movw	r30, r24
  56:	94 91       	lpm	r25, Z+
  58:	40 50       	subi	r20, 0x00	; 0
  5a:	50 40       	sbci	r21, 0x00	; 0
  5c:	fa 01       	movw	r30, r20
  5e:	34 91       	lpm	r19, Z+
  60:	33 23       	and	r19, r19
  62:	01 f0       	breq	.+0      	; 0x64 <digitalWrite+0x24>
  64:	22 23       	and	r18, r18
  66:	01 f0       	breq	.+0      	; 0x68 <digitalWrite+0x28>
  68:	23 30       	cpi	r18, 0x03	; 3
  6a:	01 f4       	brne	.+0      	; 0x6c <digitalWrite+0x2c>
  6c:	80 91 80 00 	lds	r24, 0x0080
  70:	8f 77       	andi	r24, 0x7F	; 127
  72:	00 c0       	rjmp	.+0      	; 0x74 <digitalWrite+0x34>
  74:	24 30       	cpi	r18, 0x04	; 4
  76:	01 f4       	brne	.+0      	; 0x78 <digitalWrite+0x38>
  78:	80 91 80 00 	lds	r24, 0x0080
  7c:	8f 7d       	andi	r24, 0xDF	; 223
  7e:	80 93 80 00 	sts	0x0080, r24
  82:	00 c0       	rjmp	.+0      	; 0x84 <digitalWrite+0x44>
  84:	21 30       	cpi	r18, 0x01	; 1
  86:	01 f4       	brne	.+0      	; 0x88 <digitalWrite+0x48>
  88:	84 b5       	in	r24, 0x24	; 36
  8a:	8f 77       	andi	r24, 0x7F	; 127
  8c:	00 c0       	rjmp	.+0      	; 0x8e <digitalWrite+0x4e>
  8e:	22 30       	cpi	r18, 0x02	; 2
  90:	01 f4       	brne	.+0      	; 0x92 <digitalWrite+0x52>
  92:	84 b5       	in	r24, 0x24	; 36
  94:	8f 7d       	andi	r24, 0xDF	; 223
  96:	84 bd       	out	0x24, r24	; 36
  98:	00 c0       	rjmp	.+0      	; 0x9a <digitalWrite+0x5a>
  9a:	26 30       	cpi	r18, 0x06	; 6
  9c:	01 f4       	brne	.+0      	; 0x9e <digitalWrite+0x5e>
  9e:	80 91 b0 00 	lds	r24, 0x00B0
  a2:	8f 77       	andi	r24, 0x7F	; 127
  a4:	00 c0       	rjmp	.+0      	; 0xa6 <digitalWrite+0x66>
  a6:	27 30       	cpi	r18, 0x07	; 7
  a8:	01 f4       	brne	.+0      	; 0xaa <digitalWrite+0x6a>
  aa:	80 91 b0 00 	lds	r24, 0x00B0
  ae:	8f 7d       	andi	r24, 0xDF	; 223
  b0:	80 93 b0 00 	sts	0x00B0, r24
  b4:	e3 2f       	mov	r30, r19
  b6:	f0 e0       	ldi	r31, 0x00	; 0
  b8:	ee 0f       	add	r30, r30
  ba:	ff 1f       	adc	r31, r31
  bc:	e0 50       	subi	r30, 0x00	; 0
  be:	f0 40       	sbci	r31, 0x00	; 0
  c0:	a5 91       	lpm	r26, Z+
  c2:	b4 91       	lpm	r27, Z+
  c4:	66 23       	and	r22, r22
  c6:	01 f4       	brne	.+0      	; 0xc8 <digitalWrite+0x88>
  c8:	8c 91       	ld	r24, X
  ca:	90 95       	com	r25
  cc:	89 23       	and	r24, r25
  ce:	8c 93       	st	X, r24
  d0:	08 95       	ret
  d2:	8c 91       	ld	r24, X
  d4:	89 2b       	or	r24, r25
  d6:	8c 93       	st	X, r24
  d8:	08 95       	ret

000000da <digitalRead>:
  da:	68 2f       	mov	r22, r24
  dc:	70 e0       	ldi	r23, 0x00	; 0
  de:	cb 01       	movw	r24, r22
  e0:	80 50       	subi	r24, 0x00	; 0
  e2:	90 40       	sbci	r25, 0x00	; 0
  e4:	fc 01       	movw	r30, r24
  e6:	24 91       	lpm	r18, Z+
  e8:	cb 01       	movw	r24, r22
  ea:	80 50       	subi	r24, 0x00	; 0
  ec:	90 40       	sbci	r25, 0x00	; 0
  ee:	fc 01       	movw	r30, r24
  f0:	44 91       	lpm	r20, Z+
  f2:	60 50       	subi	r22, 0x00	; 0
  f4:	70 40       	sbci	r23, 0x00	; 0
  f6:	fb 01       	movw	r30, r22
  f8:	94 91       	lpm	r25, Z+
  fa:	99 23       	and	r25, r25
  fc:	01 f4       	brne	.+0      	; 0xfe <digitalRead+0x24>
  fe:	20 e0       	ldi	r18, 0x00	; 0
 100:	30 e0       	ldi	r19, 0x00	; 0
 102:	00 c0       	rjmp	.+0      	; 0x104 <digitalRead+0x2a>
 104:	22 23       	and	r18, r18
 106:	01 f0       	breq	.+0      	; 0x108 <digitalRead+0x2e>
 108:	23 30       	cpi	r18, 0x03	; 3
 10a:	01 f4       	brne	.+0      	; 0x10c <digitalRead+0x32>
 10c:	80 91 80 00 	lds	r24, 0x0080
 110:	8f 77       	andi	r24, 0x7F	; 127
 112:	00 c0       	rjmp	.+0      	; 0x114 <digitalRead+0x3a>
 114:	24 30       	cpi	r18, 0x04	; 4
 116:	01 f4       	brne	.+0      	; 0x118 <digitalRead+0x3e>
 118:	80 91 80 00 	lds	r24, 0x0080
 11c:	8f 7d       	andi	r24, 0xDF	; 223
 11e:	80 93 80 00 	sts	0x0080, r24
 122:	00 c0       	rjmp	.+0      	; 0x124 <digitalRead+0x4a>
 124:	21 30       	cpi	r18, 0x01	; 1
 126:	01 f4       	brne	.+0      	; 0x128 <digitalRead+0x4e>
 128:	84 b5       	in	r24, 0x24	; 36
 12a:	8f 77       	andi	r24, 0x7F	; 127
 12c:	00 c0       	rjmp	.+0      	; 0x12e <digitalRead+0x54>
 12e:	22 30       	cpi	r18, 0x02	; 2
 130:	01 f4       	brne	.+0      	; 0x132 <digitalRead+0x58>
 132:	84 b5       	in	r24, 0x24	; 36
 134:	8f 7d       	andi	r24, 0xDF	; 223
 136:	84 bd       	out	0x24, r24	; 36
 138:	00 c0       	rjmp	.+0      	; 0x13a <digitalRead+0x60>
 13a:	26 30       	cpi	r18, 0x06	; 6
 13c:	01 f4       	brne	.+0      	; 0x13e <digitalRead+0x64>
 13e:	80 91 b0 00 	lds	r24, 0x00B0
 142:	8f 77       	andi	r24, 0x7F	; 127
 144:	00 c0       	rjmp	.+0      	; 0x146 <digitalRead+0x6c>
 146:	27 30       	cpi	r18, 0x07	; 7
 148:	01 f4       	brne	.+0      	; 0x14a <digitalRead+0x70>
 14a:	80 91 b0 00 	lds	r24, 0x00B0
 14e:	8f 7d       	andi	r24, 0xDF	; 223
 150:	80 93 b0 00 	sts	0x00B0, r24
 154:	89 2f       	mov	r24, r25
 156:	90 e0       	ldi	r25, 0x00	; 0
 158:	88 0f       	add	r24, r24
 15a:	99 1f       	adc	r25, r25
 15c:	80 50       	subi	r24, 0x00	; 0
 15e:	90 40       	sbci	r25, 0x00	; 0
 160:	fc 01       	movw	r30, r24
 162:	a5 91       	lpm	r26, Z+
 164:	b4 91       	lpm	r27, Z+
 166:	8c 91       	ld	r24, X
 168:	20 e0       	ldi	r18, 0x00	; 0
 16a:	30 e0       	ldi	r19, 0x00	; 0
 16c:	84 23       	and	r24, r20
 16e:	01 f0       	breq	.+0      	; 0x170 <digitalRead+0x96>
 170:	21 e0       	ldi	r18, 0x01	; 1
 172:	30 e0       	ldi	r19, 0x00	; 0
 174:	c9 01       	movw	r24, r18
 176:	08 95       	ret

wiring_pulse.o:     file format elf32-avr

Sections:
Idx Name          Size      VMA       LMA       File off  Algn
  0 .text         00000102  00000000  00000000  00000034  2**0
                  CONTENTS, ALLOC, LOAD, RELOC, READONLY, CODE
  1 .data         00000000  00000000  00000000  00000136  2**0
                  CONTENTS, ALLOC, LOAD, DATA
  2 .bss          00000000  00000000  00000000  00000136  2**0
                  ALLOC

Disassembly of section .text:

00000000 <pulseIn>:
   0:	df 92       	push	r13
   2:	ef 92       	push	r14
   4:	ff 92       	push	r15
   6:	0f 93       	push	r16
   8:	1f 93       	push	r17
   a:	a8 2f       	mov	r26, r24
   c:	b0 e0       	ldi	r27, 0x00	; 0
   e:	cd 01       	movw	r24, r26
  10:	80 50       	subi	r24, 0x00	; 0
  12:	90 40       	sbci	r25, 0x00	; 0
  14:	fc 01       	movw	r30, r24
  16:	d4 90       	lpm	r13, Z+
  18:	a0 50       	subi	r26, 0x00	; 0
  1a:	b0 40       	sbci	r27, 0x00	; 0
  1c:	fd 01       	movw	r30, r26
  1e:	84 91       	lpm	r24, Z+
  20:	66 23       	and	r22, r22
  22:	01 f4       	brne	.+0      	; 0x24 <pulseIn+0x24>
  24:	90 e0       	ldi	r25, 0x00	; 0
  26:	00 c0       	rjmp	.+0      	; 0x28 <pulseIn+0x28>
  28:	9d 2d       	mov	r25, r13
  2a:	6f ef       	ldi	r22, 0xFF	; 255
  2c:	e6 2e       	mov	r14, r22
  2e:	6f ef       	ldi	r22, 0xFF	; 255
  30:	f6 2e       	mov	r15, r22
  32:	6f ef       	ldi	r22, 0xFF	; 255
  34:	06 2f       	mov	r16, r22
  36:	6f e0       	ldi	r22, 0x0F	; 15
  38:	16 2f       	mov	r17, r22
  3a:	e2 22       	and	r14, r18
  3c:	f3 22       	and	r15, r19
  3e:	04 23       	and	r16, r20
  40:	15 23       	and	r17, r21
  42:	68 2f       	mov	r22, r24
  44:	70 e0       	ldi	r23, 0x00	; 0
  46:	66 0f       	add	r22, r22
  48:	77 1f       	adc	r23, r23
  4a:	60 50       	subi	r22, 0x00	; 0
  4c:	70 40       	sbci	r23, 0x00	; 0
  4e:	20 e0       	ldi	r18, 0x00	; 0
  50:	30 e0       	ldi	r19, 0x00	; 0
  52:	40 e0       	ldi	r20, 0x00	; 0
  54:	50 e0       	ldi	r21, 0x00	; 0
  56:	fb 01       	movw	r30, r22
  58:	a5 91       	lpm	r26, Z+
  5a:	b4 91       	lpm	r27, Z+
  5c:	00 c0       	rjmp	.+0      	; 0x5e <pulseIn+0x5e>
  5e:	2e 15       	cp	r18, r14
  60:	3f 05       	cpc	r19, r15
  62:	40 07       	cpc	r20, r16
  64:	51 07       	cpc	r21, r17
  66:	01 f4       	brne	.+0      	; 0x68 <pulseIn+0x68>
  68:	00 c0       	rjmp	.+0      	; 0x6a <pulseIn+0x6a>
  6a:	2f 5f       	subi	r18, 0xFF	; 255
  6c:	3f 4f       	sbci	r19, 0xFF	; 255
  6e:	4f 4f       	sbci	r20, 0xFF	; 255
  70:	5f 4f       	sbci	r21, 0xFF	; 255
  72:	8c 91       	ld	r24, X
  74:	8d 21       	and	r24, r13
  76:	89 17       	cp	r24, r25
  78:	01 f0       	breq	.+0      	; 0x7a <pulseIn+0x7a>
  7a:	00 c0       	rjmp	.+0      	; 0x7c <pulseIn+0x7c>
  7c:	2e 15       	cp	r18, r14
  7e:	3f 05       	cpc	r19, r15
  80:	40 07       	cpc	r20, r16
  82:	51 07       	cpc	r21, r17
  84:	01 f0       	breq	.+0      	; 0x86 <pulseIn+0x86>
  86:	2f 5f       	subi	r18, 0xFF	; 255
  88:	3f 4f       	sbci	r19, 0xFF	; 255
  8a:	4f 4f       	sbci	r20, 0xFF	; 255
  8c:	5f 4f       	sbci	r21, 0xFF	; 255
  8e:	00 c0       	rjmp	.+0      	; 0x90 <pulseIn+0x90>
  90:	fb 01       	movw	r30, r22
  92:	a5 91       	lpm	r26, Z+
  94:	b4 91       	lpm	r27, Z+
  96:	8c 91       	ld	r24, X
  98:	8d 21       	and	r24, r13
  9a:	89 17       	cp	r24, r25
  9c:	01 f4       	brne	.+0      	; 0x9e <pulseIn+0x9e>
  9e:	20 e0       	ldi	r18, 0x00	; 0
  a0:	30 e0       	ldi	r19, 0x00	; 0
  a2:	40 e0       	ldi	r20, 0x00	; 0
  a4:	50 e0       	ldi	r21, 0x00	; 0
  a6:	fb 01       	movw	r30, r22
  a8:	a5 91       	lpm	r26, Z+
  aa:	b4 91       	lpm	r27, Z+
  ac:	00 c0       	rjmp	.+0      	; 0xae <pulseIn+0xae>
  ae:	2f 5f       	subi	r18, 0xFF	; 255
  b0:	3f 4f       	sbci	r19, 0xFF	; 255
  b2:	4f 4f       	sbci	r20, 0xFF	; 255
  b4:	5f 4f       	sbci	r21, 0xFF	; 255
  b6:	8c 91       	ld	r24, X
  b8:	8d 21       	and	r24, r13
  ba:	89 17       	cp	r24, r25
  bc:	01 f0       	breq	.+0      	; 0xbe <pulseIn+0xbe>
  be:	ca 01       	movw	r24, r20
  c0:	b9 01       	movw	r22, r18
  c2:	2a e0       	ldi	r18, 0x0A	; 10
  c4:	30 e0       	ldi	r19, 0x00	; 0
  c6:	40 e0       	ldi	r20, 0x00	; 0
  c8:	50 e0       	ldi	r21, 0x00	; 0
  ca:	0e 94 00 00 	call	0	; 0x0 <pulseIn>
  ce:	9b 01       	movw	r18, r22
  d0:	ac 01       	movw	r20, r24
  d2:	20 5f       	subi	r18, 0xF0	; 240
  d4:	3f 4f       	sbci	r19, 0xFF	; 255
  d6:	4f 4f       	sbci	r20, 0xFF	; 255
  d8:	5f 4f       	sbci	r21, 0xFF	; 255
  da:	84 e0       	ldi	r24, 0x04	; 4
  dc:	56 95       	lsr	r21
  de:	47 95       	ror	r20
  e0:	37 95       	ror	r19
  e2:	27 95       	ror	r18
  e4:	8a 95       	dec	r24
  e6:	01 f4       	brne	.+0      	; 0xe8 <pulseIn+0xe8>
  e8:	00 c0       	rjmp	.+0      	; 0xea <pulseIn+0xea>
  ea:	20 e0       	ldi	r18, 0x00	; 0
  ec:	30 e0       	ldi	r19, 0x00	; 0
  ee:	40 e0       	ldi	r20, 0x00	; 0
  f0:	50 e0       	ldi	r21, 0x00	; 0
  f2:	b9 01       	movw	r22, r18
  f4:	ca 01       	movw	r24, r20
  f6:	1f 91       	pop	r17
  f8:	0f 91       	pop	r16
  fa:	ff 90       	pop	r15
  fc:	ef 90       	pop	r14
  fe:	df 90       	pop	r13
 100:	08 95       	ret

wiring_shift.o:     file format elf32-avr

Sections:
Idx Name          Size      VMA       LMA       File off  Algn
  0 .text         00000082  00000000  00000000  00000034  2**0
                  CONTENTS, ALLOC, LOAD, RELOC, READONLY, CODE
  1 .data         00000000  00000000  00000000  000000b6  2**0
                  CONTENTS, ALLOC, LOAD, DATA
  2 .bss          00000000  00000000  00000000  000000b6  2**0
                  ALLOC

Disassembly of section .text:

00000000 <shiftOut>:
   0:	bf 92       	push	r11
   2:	cf 92       	push	r12
   4:	df 92       	push	r13
   6:	ef 92       	push	r14
   8:	ff 92       	push	r15
   a:	0f 93       	push	r16
   c:	1f 93       	push	r17
   e:	cf 93       	push	r28
  10:	df 93       	push	r29
  12:	e8 2e       	mov	r14, r24
  14:	f6 2e       	mov	r15, r22
  16:	b4 2e       	mov	r11, r20
  18:	c0 e0       	ldi	r28, 0x00	; 0
  1a:	d0 e0       	ldi	r29, 0x00	; 0
  1c:	02 2f       	mov	r16, r18
  1e:	10 e0       	ldi	r17, 0x00	; 0
  20:	87 e0       	ldi	r24, 0x07	; 7
  22:	c8 2e       	mov	r12, r24
  24:	d1 2c       	mov	r13, r1
  26:	bb 20       	and	r11, r11
  28:	01 f4       	brne	.+0      	; 0x2a <shiftOut+0x2a>
  2a:	b8 01       	movw	r22, r16
  2c:	0c 2e       	mov	r0, r28
  2e:	00 c0       	rjmp	.+0      	; 0x30 <shiftOut+0x30>
  30:	75 95       	asr	r23
  32:	67 95       	ror	r22
  34:	0a 94       	dec	r0
  36:	02 f4       	brpl	.+0      	; 0x38 <shiftOut+0x38>
  38:	00 c0       	rjmp	.+0      	; 0x3a <shiftOut+0x3a>
  3a:	b6 01       	movw	r22, r12
  3c:	6c 1b       	sub	r22, r28
  3e:	7d 0b       	sbc	r23, r29
  40:	c8 01       	movw	r24, r16
  42:	00 c0       	rjmp	.+0      	; 0x44 <shiftOut+0x44>
  44:	95 95       	asr	r25
  46:	87 95       	ror	r24
  48:	6a 95       	dec	r22
  4a:	02 f4       	brpl	.+0      	; 0x4c <shiftOut+0x4c>
  4c:	bc 01       	movw	r22, r24
  4e:	61 70       	andi	r22, 0x01	; 1
  50:	8e 2d       	mov	r24, r14
  52:	0e 94 00 00 	call	0	; 0x0 <shiftOut>
  56:	8f 2d       	mov	r24, r15
  58:	61 e0       	ldi	r22, 0x01	; 1
  5a:	0e 94 00 00 	call	0	; 0x0 <shiftOut>
  5e:	8f 2d       	mov	r24, r15
  60:	60 e0       	ldi	r22, 0x00	; 0
  62:	0e 94 00 00 	call	0	; 0x0 <shiftOut>
  66:	21 96       	adiw	r28, 0x01	; 1
  68:	c8 30       	cpi	r28, 0x08	; 8
  6a:	d1 05       	cpc	r29, r1
  6c:	01 f4       	brne	.+0      	; 0x6e <shiftOut+0x6e>
  6e:	df 91       	pop	r29
  70:	cf 91       	pop	r28
  72:	1f 91       	pop	r17
  74:	0f 91       	pop	r16
  76:	ff 90       	pop	r15
  78:	ef 90       	pop	r14
  7a:	df 90       	pop	r13
  7c:	cf 90       	pop	r12
  7e:	bf 90       	pop	r11
  80:	08 95       	ret
